	.file	"diskio.c"
__SP_H__ = 0x3e
__SP_L__ = 0x3d
__SREG__ = 0x3f
__RAMPZ__ = 0x3b
__CCP__ = 0x34
__tmp_reg__ = 0
__zero_reg__ = 1
	.section	.text,code
.Ltext0:
	.cfi_sections	.debug_frame
	.section	.text.disk_status,code
.global	disk_status
	.type	disk_status, @function
disk_status:
.LFB5:
	.file 1 "fatfs/diskio.c"
	.loc 1 31 0
	.cfi_startproc
.LVL0:
/* prologue: function */
/* frame size = 0 */
/* stack size = 0 */
.L__stack_usage = 0
	.loc 1 32 0
	cpse r24,__zero_reg__
	rjmp .L5
	.loc 1 35 0
	lds r24,SDStatus
.LVL1:
	ret
.LVL2:
.L5:
	.loc 1 37 0
	ldi r24,lo8(1)
.LVL3:
	.loc 1 38 0
	ret
	.cfi_endproc
.LFE5:
	.size	disk_status, .-disk_status
	.section	.text.disk_initialize,code
.global	disk_initialize
	.type	disk_initialize, @function
disk_initialize:
.LFB6:
	.loc 1 49 0
	.cfi_startproc
.LVL4:
/* prologue: function */
/* frame size = 0 */
/* stack size = 0 */
.L__stack_usage = 0
	.loc 1 50 0
	cpse r24,__zero_reg__
	rjmp .L12
	.loc 1 52 0
	lds r24,SDStatus
.LVL5:
	sbrc r24,1
	rjmp .L11
	.loc 1 53 0
	call sd_init
.LVL6:
	or r24,r25
	brne .L9
	.loc 1 53 0 is_stmt 0 discriminator 1
	lds r24,SDStatus
	andi r24,lo8(-2)
	sts SDStatus,r24
.L9:
	.loc 1 54 0 is_stmt 1
	lds r24,SDStatus
	ret
.LVL7:
.L12:
	.loc 1 56 0
	ldi r24,lo8(1)
.LVL8:
	ret
.L11:
	.loc 1 52 0
	ldi r24,lo8(1)
	.loc 1 57 0
	ret
	.cfi_endproc
.LFE6:
	.size	disk_initialize, .-disk_initialize
	.section	.text.disk_read,code
.global	disk_read
	.type	disk_read, @function
disk_read:
.LFB7:
	.loc 1 71 0
	.cfi_startproc
.LVL9:
	push r12
	.cfi_def_cfa_offset 4
	.cfi_offset 12, -3
	push r13
	.cfi_def_cfa_offset 5
	.cfi_offset 13, -4
	push r14
	.cfi_def_cfa_offset 6
	.cfi_offset 14, -5
	push r15
	.cfi_def_cfa_offset 7
	.cfi_offset 15, -6
	push r16
	.cfi_def_cfa_offset 8
	.cfi_offset 16, -7
	push r17
	.cfi_def_cfa_offset 9
	.cfi_offset 17, -8
	push r28
	.cfi_def_cfa_offset 10
	.cfi_offset 28, -9
	push r29
	.cfi_def_cfa_offset 11
	.cfi_offset 29, -10
/* prologue: function */
/* frame size = 0 */
/* stack size = 8 */
.L__stack_usage = 8
	movw r28,r22
	movw r12,r18
	movw r14,r20
	.loc 1 72 0
	cpse r24,__zero_reg__
	rjmp .L22
	.loc 1 74 0
	cp r16,__zero_reg__
	cpc r17,__zero_reg__
	breq .L16
.LVL10:
.L20:
	.loc 1 75 0
	movw r20,r28
	movw r24,r14
	movw r22,r12
	call sd_readSECTOR
.LVL11:
	or r24,r25
	breq .L16
	.loc 1 76 0
	subi r29,-2
.LVL12:
	.loc 1 77 0
	ldi r24,-1
	sub r12,r24
	sbc r13,r24
	sbc r14,r24
	sbc r15,r24
.LVL13:
	.loc 1 78 0
	subi r16,1
	sbc r17,__zero_reg__
.LVL14:
	.loc 1 74 0
	brne .L20
.L16:
	.loc 1 80 0
	ldi r24,lo8(1)
	or r16,r17
	brne .L14
	ldi r24,0
	rjmp .L14
.LVL15:
.L22:
	.loc 1 83 0
	ldi r24,lo8(4)
.LVL16:
.L14:
/* epilogue start */
	.loc 1 84 0
	pop r29
	pop r28
.LVL17:
	pop r17
	pop r16
.LVL18:
	pop r15
	pop r14
	pop r13
	pop r12
.LVL19:
	ret
	.cfi_endproc
.LFE7:
	.size	disk_read, .-disk_read
	.section	.text.disk_write,code
.global	disk_write
	.type	disk_write, @function
disk_write:
.LFB8:
	.loc 1 99 0
	.cfi_startproc
.LVL20:
	push r6
	.cfi_def_cfa_offset 4
	.cfi_offset 6, -3
	push r7
	.cfi_def_cfa_offset 5
	.cfi_offset 7, -4
	push r8
	.cfi_def_cfa_offset 6
	.cfi_offset 8, -5
	push r10
	.cfi_def_cfa_offset 7
	.cfi_offset 10, -6
	push r11
	.cfi_def_cfa_offset 8
	.cfi_offset 11, -7
	push r12
	.cfi_def_cfa_offset 9
	.cfi_offset 12, -8
	push r13
	.cfi_def_cfa_offset 10
	.cfi_offset 13, -9
	push r14
	.cfi_def_cfa_offset 11
	.cfi_offset 14, -10
	push r15
	.cfi_def_cfa_offset 12
	.cfi_offset 15, -11
	push r16
	.cfi_def_cfa_offset 13
	.cfi_offset 16, -12
	push r17
	.cfi_def_cfa_offset 14
	.cfi_offset 17, -13
/* prologue: function */
/* frame size = 0 */
/* stack size = 11 */
.L__stack_usage = 11
	movw r6,r20
	mov r8,r22
	movw r10,r16
	movw r12,r18
	.loc 1 100 0
	cpse r24,__zero_reg__
	rjmp .L32
	.loc 1 102 0
	cp r14,__zero_reg__
	cpc r15,__zero_reg__
	breq .L26
.LVL21:
.L30:
	.loc 1 103 0
	movw r18,r6
	ldi r20,lo8(-128)
	movw r24,r12
	movw r22,r10
	call sd_writeSECTOR
.LVL22:
	or r24,r25
	breq .L26
	.loc 1 104 0
	ldi r24,2
	add r7,r24
	adc r8,__zero_reg__
.LVL23:
	.loc 1 105 0
	ldi r24,-1
	sub r10,r24
	sbc r11,r24
	sbc r12,r24
	sbc r13,r24
.LVL24:
	.loc 1 106 0
	ldi r24,1
	sub r14,r24
	sbc r15,__zero_reg__
.LVL25:
	.loc 1 102 0
	brne .L30
.L26:
	.loc 1 108 0
	ldi r24,lo8(1)
	or r14,r15
	brne .L24
	ldi r24,0
	rjmp .L24
.LVL26:
.L32:
	.loc 1 111 0
	ldi r24,lo8(4)
.LVL27:
.L24:
/* epilogue start */
	.loc 1 112 0
	pop r17
	pop r16
	pop r15
	pop r14
.LVL28:
	pop r13
	pop r12
	pop r11
	pop r10
.LVL29:
	pop r8
	pop r7
	pop r6
.LVL30:
	ret
	.cfi_endproc
.LFE8:
	.size	disk_write, .-disk_write
	.section	.text.disk_ioctl,code
.global	disk_ioctl
	.type	disk_ioctl, @function
disk_ioctl:
.LFB9:
	.loc 1 126 0
	.cfi_startproc
.LVL31:
/* prologue: function */
/* frame size = 0 */
/* stack size = 0 */
.L__stack_usage = 0
	.loc 1 127 0
	cpse r24,__zero_reg__
	rjmp .L39
	.loc 1 129 0
	cpi r22,lo8(2)
	brne .L36
	.loc 1 130 0
	ldi r24,0
	ldi r25,lo8(2)
.LVL32:
	movw r30,r20
	st Z,r24
	std Z+1,r25
	.loc 1 131 0
	ldi r24,0
	ret
.LVL33:
.L36:
	.loc 1 133 0
	lds r24,SDStatus
.LVL34:
	sbrs r24,0
	rjmp .L38
	ldi r24,lo8(3)
	ret
.LVL35:
.L39:
	.loc 1 136 0
	ldi r24,lo8(4)
.LVL36:
	ret
.L38:
	ldi r24,lo8(4)
	.loc 1 137 0
	ret
	.cfi_endproc
.LFE9:
	.size	disk_ioctl, .-disk_ioctl
	.section	.text.disk_timerproc,code
.global	disk_timerproc
	.type	disk_timerproc, @function
disk_timerproc:
.LFB10:
	.loc 1 140 0
	.cfi_startproc
	push r16
	.cfi_def_cfa_offset 4
	.cfi_offset 16, -3
	push r17
	.cfi_def_cfa_offset 5
	.cfi_offset 17, -4
/* prologue: function */
/* frame size = 0 */
/* stack size = 2 */
.L__stack_usage = 2
	.loc 1 144 0
	call millis
.LVL37:
	lds r16,proctimer.4451
	lds r17,proctimer.4451+1
	lds r18,proctimer.4451+2
	lds r19,proctimer.4451+3
	movw r26,r24
	movw r24,r22
	sub r24,r16
	sbc r25,r17
	sbc r26,r18
	sbc r27,r19
	sbiw r24,11
	cpc r26,__zero_reg__
	cpc r27,__zero_reg__
	brlo .L40
	.loc 1 145 0
	call millis
.LVL38:
	sts proctimer.4451,r22
	sts proctimer.4451+1,r23
	sts proctimer.4451+2,r24
	sts proctimer.4451+3,r25
	.loc 1 147 0
	lds r17,SDStatus
.LVL39:
	.loc 1 148 0
	call sd_getCD
.LVL40:
	or r24,r25
	breq .L42
	.loc 1 148 0 is_stmt 0 discriminator 1
	andi r17,lo8(-3)
.LVL41:
	rjmp .L43
.L42:
	.loc 1 149 0 is_stmt 1
	ori r17,lo8(3)
.LVL42:
.L43:
	.loc 1 150 0
	sts SDStatus,r17
.LVL43:
.L40:
/* epilogue start */
	.loc 1 152 0
	pop r17
	pop r16
	ret
	.cfi_endproc
.LFE10:
	.size	disk_timerproc, .-disk_timerproc
	.section	.bss.proctimer.4451,bss
	.type	proctimer.4451, @object
	.size	proctimer.4451, 4
proctimer.4451:
	.zero	4
.global	SDStatus
	.section	.data.SDStatus,data
	.type	SDStatus, @object
	.size	SDStatus, 1
SDStatus:
	.byte	1
	.section	.text,code
.Letext0:
	.file 2 "/opt/microchip/xc8/v2.10/avr/avr/include/stdint.h"
	.file 3 "fatfs/ff.h"
	.file 4 "fatfs/diskio.h"
	.file 5 "fatfs/sd.h"
	.file 6 "fatfs/../time/time.h"