	.file	"main.c"
__SP_H__ = 0x3e
__SP_L__ = 0x3d
__SREG__ = 0x3f
__RAMPZ__ = 0x3b
__CCP__ = 0x34
__tmp_reg__ = 0
__zero_reg__ = 1
	.section	.text,code
.Ltext0:
	.cfi_sections	.debug_frame
	.section	.text.uart_putchar,code
	.type	uart_putchar, @function
uart_putchar:
.LFB14:
	.file 1 "main.c"
	.loc 1 120 0
	.cfi_startproc
.LVL0:
/* prologue: function */
/* frame size = 0 */
/* stack size = 0 */
.L__stack_usage = 0
	.loc 1 122 0
	ldi r30,lo8(-96)
	ldi r31,lo8(9)
.L2:
	.loc 1 122 0 is_stmt 0 discriminator 1
	ldd r25,Z+1
	.loc 1 122 0 is_stmt 1 discriminator 1
	sbrs r25,5
	rjmp .L2
	.loc 1 124 0
	sts 2464,r24
	.loc 1 126 0
	ldi r24,0
	ldi r25,0
.LVL1:
	ret
	.cfi_endproc
.LFE14:
	.size	uart_putchar, .-uart_putchar
	.section	.progmemx.data,progmemx
.LC0:
	.string	"test.txt"
	.section	.progmemx.data,progmemx
.LC1:
	.string	"f_puts\r"
	.section	.progmemx.data,progmemx
.LC2:
	.string	"Testowy zapis\r\n"
	.section	.text.handle_write,code
	.type	handle_write, @function
handle_write:
.LFB18:
	.loc 1 215 0
	.cfi_startproc
	push r16
	.cfi_def_cfa_offset 4
	.cfi_offset 16, -3
	push r17
	.cfi_def_cfa_offset 5
	.cfi_offset 17, -4
	push r28
	.cfi_def_cfa_offset 6
	.cfi_offset 28, -5
	push r29
	.cfi_def_cfa_offset 7
	.cfi_offset 29, -6
	in r28,__SP_L__
	in r29,__SP_H__
	.cfi_def_cfa_register 28
	subi r28,34
	sbci r29,2
	.cfi_def_cfa_offset 553
	out __SP_L__,r28
	out __SP_H__,r29
/* prologue: function */
/* frame size = 546 */
/* stack size = 550 */
.L__stack_usage = 550
	.loc 1 219 0
	call millis
.LVL2:
	lds r16,wrt_timer.4821
	lds r17,wrt_timer.4821+1
	lds r18,wrt_timer.4821+2
	lds r19,wrt_timer.4821+3
	movw r26,r24
	movw r24,r22
	sub r24,r16
	sbc r25,r17
	sbc r26,r18
	sbc r27,r19
	cpi r24,17
	sbci r25,39
	cpc r26,__zero_reg__
	cpc r27,__zero_reg__
	brsh .+2
	rjmp .L4
	.loc 1 220 0
	call millis
.LVL3:
	sts wrt_timer.4821,r22
	sts wrt_timer.4821+1,r23
	sts wrt_timer.4821+2,r24
	sts wrt_timer.4821+3,r25
	.loc 1 221 0
	ldi r24,lo8(__c.4824)
	ldi r25,hi8(__c.4824)
	ldi r26,hlo8(__c.4824)
	push r26
	push r25
	push r24
	call printf_P
.LVL4:
	.loc 1 223 0
	ldi r24,lo8(__c.4826)
	ldi r25,hi8(__c.4826)
	ldi r26,hlo8(__c.4826)
	push r26
	push r25
	push r24
	call printf_P
.LVL5:
	.loc 1 224 0
	ldi r18,lo8(18)
	ldi r20,lo8(.LC0)
	ldi r21,hi8(.LC0)
	ldi r22,hlo8(.LC0)
	movw r24,r28
	adiw r24,1
	call f_open
.LVL6:
	.loc 1 225 0
	pop __tmp_reg__
	pop __tmp_reg__
	pop __tmp_reg__
	pop __tmp_reg__
	pop __tmp_reg__
	pop __tmp_reg__
	tst r24
	breq .L6
	.loc 1 226 0
	push __zero_reg__
	push r24
	ldi r24,lo8(__c.4828)
	ldi r25,hi8(__c.4828)
	ldi r26,hlo8(__c.4828)
.LVL7:
	push r26
.LVL8:
	push r25
.LVL9:
	push r24
.LVL10:
	call printf_P
.LVL11:
	.loc 1 227 0
	pop __tmp_reg__
	pop __tmp_reg__
	pop __tmp_reg__
	pop __tmp_reg__
	pop __tmp_reg__
	rjmp .L4
.LVL12:
.L6:
	.loc 1 230 0
	ldd r20,Y+11
	ldd r21,Y+12
	ldd r22,Y+13
	ldd r23,Y+14
	movw r24,r28
.LVL13:
	adiw r24,1
	call f_lseek
.LVL14:
	.loc 1 231 0
	tst r24
	breq .L8
	.loc 1 232 0
	push __zero_reg__
	push r24
	ldi r24,lo8(__c.4830)
	ldi r25,hi8(__c.4830)
	ldi r26,hlo8(__c.4830)
.LVL15:
	push r26
.LVL16:
	push r25
.LVL17:
	push r24
.LVL18:
	call printf_P
.LVL19:
	.loc 1 233 0
	movw r24,r28
	adiw r24,1
	call f_close
.LVL20:
	.loc 1 234 0
	pop __tmp_reg__
	pop __tmp_reg__
	pop __tmp_reg__
	pop __tmp_reg__
	pop __tmp_reg__
	rjmp .L4
.LVL21:
.L8:
	.loc 1 236 0
	ldi r22,lo8(.LC1)
	ldi r23,hi8(.LC1)
	ldi r24,hlo8(.LC1)
	call puts
.LVL22:
	.loc 1 237 0
	movw r20,r28
	subi r20,-1
	sbci r21,-1
	ldi r22,lo8(.LC2)
	ldi r23,hi8(.LC2)
	ldi r24,hlo8(.LC2)
	call f_puts
.LVL23:
	.loc 1 239 0
	ldi r24,lo8(__c.4834)
	ldi r25,hi8(__c.4834)
	ldi r26,hlo8(__c.4834)
	push r26
	push r25
	push r24
	call printf_P
.LVL24:
	.loc 1 240 0
	movw r24,r28
	adiw r24,1
	call f_close
.LVL25:
	pop __tmp_reg__
	pop __tmp_reg__
	pop __tmp_reg__
.L4:
/* epilogue start */
	.loc 1 242 0
	subi r28,-34
	sbci r29,-3
	out __SP_L__,r28
	out __SP_H__,r29
	pop r29
	pop r28
	pop r17
	pop r16
	ret
	.cfi_endproc
.LFE18:
	.size	handle_write, .-handle_write
	.section	.progmemx.data,progmemx
.LC3:
	.string	"Start...\r"
	.section	.progmemx.data,progmemx
.LC4:
	.string	""
	.section	.text.main,code
.global	main
	.type	main, @function
main:
.LFB12:
	.loc 1 47 0
	.cfi_startproc
/* prologue: function */
/* frame size = 0 */
/* stack size = 0 */
.L__stack_usage = 0
.LBB24:
.LBB25:
	.loc 1 132 0
	ldi r30,lo8(80)
	ldi r31,0
	ldi r24,lo8(75)
	std Z+2,r24
	.loc 1 133 0
	ld r24,Z
	ori r24,lo8(8)
	st Z,r24
.L11:
	.loc 1 134 0
	ldd r24,Z+1
	.loc 1 134 0
	sbrs r24,3
	rjmp .L11
	.loc 1 139 0
	ldi r30,lo8(80)
	ldi r31,0
	ldi r24,lo8(-60)
	std Z+5,r24
	.loc 1 142 0
	ld r24,Z
	ori r24,lo8(16)
	st Z,r24
.L12:
	.loc 1 143 0
	ldd r24,Z+1
	.loc 1 143 0
	sbrs r24,4
	rjmp .L12
	.loc 1 146 0
	ldi r24,lo8(-40)
	out __CCP__,r24
	.loc 1 147 0
	ldi r24,lo8(4)
	sts 64,r24
.LBE25:
.LBE24:
.LBB26:
.LBB27:
	.loc 1 151 0
	ldi r26,lo8(-95)
	ldi r27,lo8(6)
	st X,r24
	.loc 1 152 0
	ldi r25,lo8(8)
	st X,r25
	.loc 1 153 0
	sts 1634,r24
	.loc 1 154 0
	sts 1633,r25
	.loc 1 155 0
	ldi r30,lo8(-126)
	ldi r31,lo8(6)
	ldi r19,lo8(1)
	st Z,r19
	.loc 1 156 0
	ldi r28,lo8(-123)
	ldi r29,lo8(6)
	st Y,r19
	.loc 1 157 0
	ldi r21,lo8(2)
	st Z,r21
	.loc 1 158 0
	st Y,r21
	.loc 1 159 0
	st Z,r24
	.loc 1 160 0
	st Y,r24
	.loc 1 161 0
	st Z,r25
	.loc 1 162 0
	ldi r28,lo8(-127)
	ldi r29,lo8(6)
	ldi r20,lo8(16)
	st Y,r20
	.loc 1 163 0
	ldi r18,lo8(32)
	st Y,r18
	.loc 1 164 0
	ldi r23,lo8(64)
	st Z,r23
	.loc 1 165 0
	ldi r22,lo8(-128)
	st Y,r22
	.loc 1 166 0
	st X,r19
	.loc 1 167 0
	sts 1701,r19
	.loc 1 168 0
	st X,r21
	.loc 1 169 0
	ldi r26,lo8(66)
	ldi r27,lo8(6)
	st X,r24
	.loc 1 170 0
	ldi r30,lo8(65)
	ldi r31,lo8(6)
	st Z,r25
	.loc 1 171 0
	ldi r28,lo8(69)
	ldi r29,lo8(6)
	st Y,r25
	.loc 1 172 0
	st Z,r20
	.loc 1 173 0
	st Y,r20
	.loc 1 174 0
	st Z,r18
	.loc 1 175 0
	st X,r23
	.loc 1 176 0
	st Z,r22
	.loc 1 181 0
	sts 1614,r18
	.loc 1 182 0
	sts 1678,r18
	.loc 1 184 0
	ldi r30,lo8(-64)
	ldi r31,lo8(8)
	ldi r24,lo8(80)
	st Z,r24
	.loc 1 186 0
	ld r25,Z
	st Z,r25
	.loc 1 188 0
	ldi r30,lo8(-64)
	ldi r31,lo8(10)
	st Z,r24
	.loc 1 190 0
	ld r24,Z
	st Z,r24
.LBE27:
.LBE26:
.LBB28:
.LBB29:
	.loc 1 114 0
	ldi r30,lo8(-92)
	ldi r31,lo8(9)
	ld r24,Z
	ori r24,lo8(24)
	st Z,r24
	.loc 1 115 0
	ldi r30,lo8(-91)
	ldi r31,lo8(9)
	ld r24,Z
	ori r24,lo8(3)
	st Z,r24
	.loc 1 116 0
	ldi r24,lo8(46)
	sts 2470,r24
	.loc 1 117 0
	ldi r24,lo8(-104)
	sts 2471,r24
.LBE29:
.LBE28:
	.loc 1 58 0
	ldi r24,lo8(mystdout)
	ldi r25,hi8(mystdout)
	sts __iob+2,r24
	sts __iob+2+1,r25
	.loc 1 68 0
	ldi r22,lo8(.LC3)
	ldi r23,hi8(.LC3)
	ldi r24,hlo8(.LC3)
	call puts
	.loc 1 70 0
	call time_init
	.loc 1 74 0
	call W51_init
.LBB30:
.LBB31:
	.file 2 "/opt/microchip/xc8/v2.10/avr/avr/include/util/delay.h"
	.loc 2 187 0
	ldi r18,lo8(6399999)
	ldi r24,hi8(6399999)
	ldi r25,hlo8(6399999)
1:	subi r18,1
	sbci r24,0
	sbci r25,0
	brne 1b
	rjmp .
	nop
.LBE31:
.LBE30:
	.loc 1 76 0
	ldi r24,lo8(w5100_default_conf)
	ldi r25,hi8(w5100_default_conf)
	call W51_config
.LBB32:
.LBB33:
	.loc 2 187 0
	ldi r18,lo8(639999)
	ldi r24,hi8(639999)
	ldi r25,hlo8(639999)
1:	subi r18,1
	sbci r24,0
	sbci r25,0
	brne 1b
	rjmp .
	nop
.LBE33:
.LBE32:
	.loc 1 79 0
	ldi r18,0
	ldi r20,lo8(.LC4)
	ldi r21,hi8(.LC4)
	ldi r22,hlo8(.LC4)
	ldi r24,lo8(SDFatFS)
	ldi r25,hi8(SDFatFS)
	call f_mount
	.loc 1 80 0
	tst r24
	breq .L13
	.loc 1 80 0 is_stmt 0 discriminator 1
	push __zero_reg__
	.cfi_def_cfa_offset 4
	push r24
	.cfi_def_cfa_offset 5
	ldi r24,lo8(__c.4783)
	ldi r25,hi8(__c.4783)
	ldi r26,hlo8(__c.4783)
	push r26
	.cfi_def_cfa_offset 6
	push r25
	.cfi_def_cfa_offset 7
	push r24
	.cfi_def_cfa_offset 8
	call printf_P
	pop __tmp_reg__
	pop __tmp_reg__
	pop __tmp_reg__
	pop __tmp_reg__
	pop __tmp_reg__
	.cfi_def_cfa_offset 3
	rjmp .L14
.L13:
	.loc 1 81 0 is_stmt 1
	ldi r24,lo8(__c.4785)
	ldi r25,hi8(__c.4785)
	ldi r26,hlo8(__c.4785)
	push r26
	.cfi_def_cfa_offset 4
	push r25
	.cfi_def_cfa_offset 5
	push r24
	.cfi_def_cfa_offset 6
	call printf_P
	pop __tmp_reg__
	pop __tmp_reg__
	pop __tmp_reg__
	.cfi_def_cfa_offset 3
.L14:
	.loc 1 83 0
	ldi r24,lo8(1)
	sts 162,r24
	.loc 1 85 0
/* #APP */
 ;  85 "main.c" 1
	sei
 ;  0 "" 2
	.loc 1 89 0
/* #NOAPP */
	call WDT_Disable
	.loc 1 90 0
	ldi r24,lo8(32)
	call WDT_EnableAndSetTimeout
.LBB34:
.LBB35:
	.loc 1 200 0
	ldi r28,lo8(-89)
	ldi r29,lo8(6)
	set
	clr r15
	bld r15,2
	.loc 1 201 0
	mov __tmp_reg__,r31
	ldi r31,lo8(__c.4816)
	mov r12,r31
	ldi r31,hi8(__c.4816)
	mov r13,r31
	ldi r31,hlo8(__c.4816)
	mov r14,r31
	mov r31,__tmp_reg__
	.loc 1 206 0
	ldi r16,lo8(2)
	.loc 1 211 0
	ldi r17,lo8(8)
.L19:
	.loc 1 198 0
	call millis
	lds r8,blink_timer1.4813
	lds r9,blink_timer1.4813+1
	lds r10,blink_timer1.4813+2
	lds r11,blink_timer1.4813+3
	movw r26,r24
	movw r24,r22
	sub r24,r8
	sbc r25,r9
	sbc r26,r10
	sbc r27,r11
	cpi r24,-23
	sbci r25,3
	cpc r26,__zero_reg__
	cpc r27,__zero_reg__
	brlo .L15
	.loc 1 199 0
	call millis
	sts blink_timer1.4813,r22
	sts blink_timer1.4813+1,r23
	sts blink_timer1.4813+2,r24
	sts blink_timer1.4813+3,r25
	.loc 1 200 0
	st Y,r15
	.loc 1 201 0
	call millis
	push r25
	.cfi_def_cfa_offset 4
	push r24
	.cfi_def_cfa_offset 5
	push r23
	.cfi_def_cfa_offset 6
	push r22
	.cfi_def_cfa_offset 7
	push r14
	.cfi_def_cfa_offset 8
	push r13
	.cfi_def_cfa_offset 9
	push r12
	.cfi_def_cfa_offset 10
	call printf_P
	in r24,__SP_L__
	in r25,__SP_H__
	adiw r24,7
	out __SP_L__,r24
	out __SP_H__,r25
	.cfi_def_cfa_offset 3
.L15:
	.loc 1 204 0
	call millis
	lds r8,blink_timer2.4814
	lds r9,blink_timer2.4814+1
	lds r10,blink_timer2.4814+2
	lds r11,blink_timer2.4814+3
	movw r26,r24
	movw r24,r22
	sub r24,r8
	sbc r25,r9
	sbc r26,r10
	sbc r27,r11
	cpi r24,-47
	sbci r25,7
	cpc r26,__zero_reg__
	cpc r27,__zero_reg__
	brlo .L16
	.loc 1 205 0
	call millis
	sts blink_timer2.4814,r22
	sts blink_timer2.4814+1,r23
	sts blink_timer2.4814+2,r24
	sts blink_timer2.4814+3,r25
	.loc 1 206 0
	st Y,r16
.L16:
	.loc 1 209 0
	call millis
	lds r8,blink_timer3.4815
	lds r9,blink_timer3.4815+1
	lds r10,blink_timer3.4815+2
	lds r11,blink_timer3.4815+3
	movw r26,r24
	movw r24,r22
	sub r24,r8
	sbc r25,r9
	sbc r26,r10
	sbc r27,r11
	cpi r24,-95
	sbci r25,15
	cpc r26,__zero_reg__
	cpc r27,__zero_reg__
	brlo .L17
	.loc 1 210 0
	call millis
	sts blink_timer3.4815,r22
	sts blink_timer3.4815+1,r23
	sts blink_timer3.4815+2,r24
	sts blink_timer3.4815+3,r25
	.loc 1 211 0
	st Y,r17
.L17:
.LBE35:
.LBE34:
	.loc 1 95 0
	call handle_write
	.loc 1 96 0
	call disk_timerproc
	.loc 1 98 0
	call millis
	lds r8,watchdog_timer.4779
	lds r9,watchdog_timer.4779+1
	lds r10,watchdog_timer.4779+2
	lds r11,watchdog_timer.4779+3
	movw r26,r24
	movw r24,r22
	sub r24,r8
	sbc r25,r9
	sbc r26,r10
	sbc r27,r11
	cpi r24,-55
	cpc r25,__zero_reg__
	cpc r26,__zero_reg__
	cpc r27,__zero_reg__
	brlo .L18
	.loc 1 99 0
	call millis
	sts watchdog_timer.4779,r22
	sts watchdog_timer.4779+1,r23
	sts watchdog_timer.4779+2,r24
	sts watchdog_timer.4779+3,r25
	.loc 1 100 0
/* #APP */
 ;  100 "main.c" 1
	wdr
 ;  0 "" 2
/* #NOAPP */
.L18:
	.loc 1 103 0
	call millis
	lds r8,test_timer.4780
	lds r9,test_timer.4780+1
	lds r10,test_timer.4780+2
	lds r11,test_timer.4780+3
	movw r26,r24
	movw r24,r22
	sub r24,r8
	sbc r25,r9
	sbc r26,r10
	sbc r27,r11
	cpi r24,-119
	sbci r25,19
	cpc r26,__zero_reg__
	cpc r27,__zero_reg__
	brsh .+2
	rjmp .L19
	.loc 1 104 0
	call millis
	sts test_timer.4780,r22
	sts test_timer.4780+1,r23
	sts test_timer.4780+2,r24
	sts test_timer.4780+3,r25
	rjmp .L19
	.cfi_endproc
.LFE12:
	.size	main, .-main
	.section	.progmemx.data.__c.4834,progmemx
	.type	__c.4834, @object
	.size	__c.4834, 10
__c.4834:
	.string	"f_close\r\n"
	.section	.progmemx.data.__c.4830,progmemx
	.type	__c.4830, @object
	.size	__c.4830, 25
__c.4830:
	.string	"f_lseek error code: %i\r\n"
	.section	.progmemx.data.__c.4828,progmemx
	.type	__c.4828, @object
	.size	__c.4828, 24
__c.4828:
	.string	"f_open error code: %i\r\n"
	.section	.progmemx.data.__c.4826,progmemx
	.type	__c.4826, @object
	.size	__c.4826, 9
__c.4826:
	.string	"f_open\r\n"
	.section	.progmemx.data.__c.4824,progmemx
	.type	__c.4824, @object
	.size	__c.4824, 17
__c.4824:
	.string	"Zapis do pliku\r\n"
	.section	.bss.wrt_timer.4821,bss
	.type	wrt_timer.4821, @object
	.size	wrt_timer.4821, 4
wrt_timer.4821:
	.zero	4
	.section	.bss.blink_timer3.4815,bss
	.type	blink_timer3.4815, @object
	.size	blink_timer3.4815, 4
blink_timer3.4815:
	.zero	4
	.section	.bss.blink_timer2.4814,bss
	.type	blink_timer2.4814, @object
	.size	blink_timer2.4814, 4
blink_timer2.4814:
	.zero	4
	.section	.progmemx.data.__c.4816,progmemx
	.type	__c.4816, @object
	.size	__c.4816, 20
__c.4816:
	.string	"Test! Millis: %lu\r\n"
	.section	.bss.blink_timer1.4813,bss
	.type	blink_timer1.4813, @object
	.size	blink_timer1.4813, 4
blink_timer1.4813:
	.zero	4
	.section	.bss.test_timer.4780,bss
	.type	test_timer.4780, @object
	.size	test_timer.4780, 4
test_timer.4780:
	.zero	4
	.section	.bss.watchdog_timer.4779,bss
	.type	watchdog_timer.4779, @object
	.size	watchdog_timer.4779, 4
watchdog_timer.4779:
	.zero	4
	.section	.progmemx.data.__c.4785,progmemx
	.type	__c.4785, @object
	.size	__c.4785, 16
__c.4785:
	.string	"SD f_mount OK\r\n"
	.section	.progmemx.data.__c.4783,progmemx
	.type	__c.4783, @object
	.size	__c.4783, 28
__c.4783:
	.string	"SD f_mount error code: %i\r\n"
	.section	.data.mystdout,data
	.type	mystdout, @object
	.size	mystdout, 15
mystdout:
	.zero	4
	.byte	2
	.zero	4
	.word	gs(uart_putchar)
	.word	0
	.word	0
	.comm	SDFatFS,559,1
.global	w5100_default_conf
	.section	.data.w5100_default_conf,data
	.type	w5100_default_conf, @object
	.size	w5100_default_conf, 18
w5100_default_conf:
	.byte	0
	.byte	8
	.byte	-36
	.byte	85
	.byte	0
	.byte	1
	.byte	-64
	.byte	-88
	.byte	1
	.byte	35
	.byte	-1
	.byte	-1
	.byte	-1
	.byte	0
	.byte	-64
	.byte	-88
	.byte	1
	.byte	1
	.section	.text,code
.Letext0:
	.file 3 "/opt/microchip/xc8/v2.10/avr/avr/include/stdint.h"
	.file 4 "/opt/microchip/xc8/v2.10/avr/avr/include/stdio.h"
	.file 5 "/opt/microchip/xc8/v2.10/dfp/include/avr/iox128a3u.h"
	.file 6 "w5100/w5100.h"
	.file 7 "fatfs/ff.h"
	.file 8 "time/time.h"
	.file 9 "<built-in>"