	.file	"time.c"
__SP_H__ = 0x3e
__SP_L__ = 0x3d
__SREG__ = 0x3f
__RAMPZ__ = 0x3b
__CCP__ = 0x34
__tmp_reg__ = 0
__zero_reg__ = 1
	.section	.text,code
.Ltext0:
	.cfi_sections	.debug_frame
	.section	.text.time_init,code
.global	time_init
	.type	time_init, @function
time_init:
.LFB10:
	.file 1 "time/time.c"
	.loc 1 7 0
	.cfi_startproc
/* prologue: function */
/* frame size = 0 */
/* stack size = 0 */
.L__stack_usage = 0
	.loc 1 8 0
	ldi r24,0
	ldi r25,lo8(125)
	sts 2086,r24
	sts 2086+1,r25
	.loc 1 9 0
	ldi r30,0
	ldi r31,lo8(8)
	ldi r24,lo8(1)
	st Z,r24
	.loc 1 10 0
	std Z+1,__zero_reg__
	.loc 1 11 0
	std Z+6,r24
	ret
	.cfi_endproc
.LFE10:
	.size	time_init, .-time_init
	.section	.text.millis,code
.global	millis
	.type	millis, @function
millis:
.LFB11:
	.loc 1 14 0
	.cfi_startproc
	push r16
	.cfi_def_cfa_offset 4
	.cfi_offset 16, -3
	push r17
	.cfi_def_cfa_offset 5
	.cfi_offset 17, -4
	push r28
	.cfi_def_cfa_offset 6
	.cfi_offset 28, -5
	push r29
	.cfi_def_cfa_offset 7
	.cfi_offset 29, -6
	push __zero_reg__
	.cfi_def_cfa_offset 8
	in r28,__SP_L__
	in r29,__SP_H__
	.cfi_def_cfa_register 28
/* prologue: function */
/* frame size = 1 */
/* stack size = 5 */
.L__stack_usage = 5
.LBB7:
	.loc 1 16 0
	in r24,__SREG__
	std Y+1,r24
.LBB8:
.LBB9:
	.file 2 "/opt/microchip/xc8/v2.10/avr/avr/include/util/atomic.h"
	.loc 2 50 0
/* #APP */
 ;  50 "/opt/microchip/xc8/v2.10/avr/avr/include/util/atomic.h" 1
	cli
 ;  0 "" 2
.LVL0:
/* #NOAPP */
.LBE9:
.LBE8:
	.loc 1 17 0
	lds r16,milliseconds
	lds r17,milliseconds+1
	lds r18,milliseconds+2
	lds r19,milliseconds+3
.LVL1:
.LBB10:
.LBB11:
	.loc 2 70 0
	movw r24,r28
	adiw r24,1
	ldi r26,lo8(-128)
	movw r30,r24
	mov r21,r26
	call __xload_1
	out __SREG__,r22
	.loc 2 71 0
.LBE11:
.LBE10:
.LBE7:
	.loc 1 20 0
	movw r24,r18
	movw r22,r16
/* epilogue start */
	pop __tmp_reg__
	pop r29
	pop r28
	pop r17
	pop r16
.LVL2:
	ret
	.cfi_endproc
.LFE11:
	.size	millis, .-millis
	.section	.text.get_fattime,code
.global	get_fattime
	.type	get_fattime, @function
get_fattime:
.LFB12:
	.loc 1 22 0
	.cfi_startproc
/* prologue: function */
/* frame size = 0 */
/* stack size = 0 */
.L__stack_usage = 0
	.loc 1 24 0
	ldi r22,lo8(-1)
	ldi r23,lo8(-1)
	movw r24,r22
	ret
	.cfi_endproc
.LFE12:
	.size	get_fattime, .-get_fattime
	.section	.text.__vector_14,code
.global	__vector_14
	.type	__vector_14, @function
__vector_14:
.LFB13:
	.loc 1 26 0
	.cfi_startproc
	push r1
	.cfi_def_cfa_offset 4
	.cfi_offset 1, -3
	push r0
	.cfi_def_cfa_offset 5
	.cfi_offset 0, -4
	in r0,__SREG__
	push r0
	clr __zero_reg__
	push r24
	.cfi_def_cfa_offset 6
	.cfi_offset 24, -5
	push r25
	.cfi_def_cfa_offset 7
	.cfi_offset 25, -6
	push r26
	.cfi_def_cfa_offset 8
	.cfi_offset 26, -7
	push r27
	.cfi_def_cfa_offset 9
	.cfi_offset 27, -8
/* prologue: Signal */
/* frame size = 0 */
/* stack size = 7 */
.L__stack_usage = 7
	.loc 1 27 0
	lds r24,milliseconds
	lds r25,milliseconds+1
	lds r26,milliseconds+2
	lds r27,milliseconds+3
	adiw r24,1
	adc r26,__zero_reg__
	adc r27,__zero_reg__
	sts milliseconds,r24
	sts milliseconds+1,r25
	sts milliseconds+2,r26
	sts milliseconds+3,r27
/* epilogue start */
	.loc 1 28 0
	pop r27
	pop r26
	pop r25
	pop r24
	pop r0
	out __SREG__,r0
	pop r0
	pop r1
	reti
	.cfi_endproc
.LFE13:
	.size	__vector_14, .-__vector_14
.global	milliseconds
	.section	.bss.milliseconds,bss
	.type	milliseconds, @object
	.size	milliseconds, 4
milliseconds:
	.zero	4
	.section	.text,code
.Letext0:
	.file 3 "/opt/microchip/xc8/v2.10/avr/avr/include/stdint.h"
	.file 4 "/opt/microchip/xc8/v2.10/dfp/include/avr/iox128a3u.h"