	.file	"usb_requests.c"
__SP_H__ = 0x3e
__SP_L__ = 0x3d
__SREG__ = 0x3f
__RAMPZ__ = 0x3b
__CCP__ = 0x34
__tmp_reg__ = 0
__zero_reg__ = 1
	.section	.text,code
.Ltext0:
	.cfi_sections	.debug_frame
	.section	.text.usb_ep0_in_multi,code
.global	usb_ep0_in_multi
	.type	usb_ep0_in_multi, @function
usb_ep0_in_multi:
.LFB2:
	.file 1 "usb/usb_requests.c"
	.loc 1 11 0
	.cfi_startproc
	push r16
	.cfi_def_cfa_offset 4
	.cfi_offset 16, -3
	push r28
	.cfi_def_cfa_offset 5
	.cfi_offset 28, -4
	push r29
	.cfi_def_cfa_offset 6
	.cfi_offset 29, -5
/* prologue: function */
/* frame size = 0 */
/* stack size = 3 */
.L__stack_usage = 3
	.loc 1 12 0
	lds r28,usb_ep0_in_size
	lds r29,usb_ep0_in_size+1
	cpi r28,65
	cpc r29,__zero_reg__
	brlo .L2
	ldi r28,lo8(64)
	ldi r29,0
.L2:
.LVL0:
	.loc 1 18 0
	lds r20,usb_ep0_in_ptr
	lds r21,usb_ep0_in_ptr+1
	lds r22,usb_ep0_in_ptr+2
	movw r18,r28
	ldi r24,lo8(ep0_buf_in)
	ldi r25,hi8(ep0_buf_in)
	call memcpy
.LVL1:
	.loc 1 19 0
	ldi r20,lo8(ep0_buf_in)
	ldi r21,hi8(ep0_buf_in)
	ldi r22,lo8(-128)
	ldi r16,0
	movw r18,r28
	ldi r24,lo8(-128)
	call usb_ep_start_in
.LVL2:
	.loc 1 21 0
	sbiw r28,0
	brne .L3
	.loc 1 22 0
	call usb_ep0_out
.LVL3:
.L3:
	.loc 1 25 0
	lds r24,usb_ep0_in_size
	lds r25,usb_ep0_in_size+1
	sub r24,r28
	sbc r25,r29
	sts usb_ep0_in_size,r24
	sts usb_ep0_in_size+1,r25
	.loc 1 26 0
	lds r24,usb_ep0_in_ptr
	lds r25,usb_ep0_in_ptr+1
	lds r26,usb_ep0_in_ptr+2
	add r24,r28
	adc r25,r29
	adc r26,__zero_reg__
	sbrc r29,7
	dec r26
	sts usb_ep0_in_ptr,r24
	sts usb_ep0_in_ptr+1,r25
	sts usb_ep0_in_ptr+2,r26
/* epilogue start */
	.loc 1 27 0
	pop r29
	pop r28
.LVL4:
	pop r16
	ret
	.cfi_endproc
.LFE2:
	.size	usb_ep0_in_multi, .-usb_ep0_in_multi
	.section	.text.usb_handle_setup,code
.global	usb_handle_setup
	.type	usb_handle_setup, @function
usb_handle_setup:
.LFB3:
	.loc 1 29 0
	.cfi_startproc
	push r12
	.cfi_def_cfa_offset 4
	.cfi_offset 12, -3
	push r13
	.cfi_def_cfa_offset 5
	.cfi_offset 13, -4
	push r14
	.cfi_def_cfa_offset 6
	.cfi_offset 14, -5
	push r16
	.cfi_def_cfa_offset 7
	.cfi_offset 16, -6
	push r28
	.cfi_def_cfa_offset 8
	.cfi_offset 28, -7
	push r29
	.cfi_def_cfa_offset 9
	.cfi_offset 29, -8
	rcall .
	.cfi_def_cfa_offset 12
	in r28,__SP_L__
	in r29,__SP_H__
	.cfi_def_cfa_register 28
/* prologue: function */
/* frame size = 3 */
/* stack size = 9 */
.L__stack_usage = 9
	.loc 1 30 0
	lds r24,usb_setup
	andi r24,lo8(96)
	breq .+2
	rjmp .L5
	.loc 1 31 0
	lds r24,usb_setup+1
	ldi r25,0
	cpi r24,12
	cpc r25,__zero_reg__
	brlo .+2
	rjmp .L6
	movw r30,r24
	clr r24
	subi r30,pm_lo8(-(.L8))
	sbci r31,pm_hi8(-(.L8))
	sbci r24,pm_hh8(-(.L8))
	jmp __tablejump2__
	.section	.progmem.gcc_sw_table.usb_handle_setup,progmem
	.p2align	1
.L8:
	.section	.progmem.gcc_sw_table.usb_handle_setup,progmem
	.word gs(.L7)
	.word gs(.L9)
	.word gs(.L6)
	.word gs(.L9)
	.word gs(.L6)
	.word gs(.L10)
	.word gs(.L11)
	.word gs(.L6)
	.word gs(.L12)
	.word gs(.L13)
	.word gs(.L6)
	.word gs(.L14)
	.section	.text.usb_handle_setup,code
.L7:
	.loc 1 33 0
	ldi r30,lo8(ep0_buf_in)
	ldi r31,hi8(ep0_buf_in)
	st Z,__zero_reg__
	.loc 1 34 0
	std Z+1,__zero_reg__
	.loc 1 35 0
	ldi r24,lo8(2)
	call usb_ep0_in
.LVL5:
	.loc 1 36 0
	call usb_ep0_out
.LVL6:
	rjmp .L4
.L9:
	.loc 1 40 0
	ldi r24,0
	call usb_ep0_in
.LVL7:
	.loc 1 41 0
	call usb_ep0_out
.LVL8:
	rjmp .L4
.L10:
	.loc 1 44 0
	ldi r24,0
	call usb_ep0_in
.LVL9:
	.loc 1 45 0
	call usb_ep0_out
.LVL10:
	rjmp .L4
.L11:
.LBB2:
	.loc 1 48 0
	ldi r30,lo8(usb_setup)
	ldi r31,hi8(usb_setup)
	ldd r22,Z+2
	ldd r24,Z+3
.LVL11:
	.loc 1 50 0
	std Y+1,__zero_reg__
	std Y+2,__zero_reg__
	std Y+3,__zero_reg__
	.loc 1 51 0
	movw r20,r28
	subi r20,-1
	sbci r21,-1
	call usb_cb_get_descriptor
.LVL12:
	.loc 1 53 0
	sbiw r24,0
	breq .L16
	.loc 1 53 0 is_stmt 0 discriminator 1
	ldd r12,Y+1
	ldd r13,Y+2
	ldd r14,Y+3
	cp r12,__zero_reg__
	cpc r13,__zero_reg__
	cpc r14,__zero_reg__
	breq .L16
	.loc 1 54 0 is_stmt 1
	lds r18,usb_setup+6
	lds r19,usb_setup+6+1
	cp r18,r24
	cpc r19,r25
	brsh .L17
	movw r24,r18
.LVL13:
.L17:
	.loc 1 58 0
	ldi r18,lo8(ep0_buf_in)
	ldi r19,hi8(ep0_buf_in)
	ldi r20,lo8(-128)
	cp r12,r18
	cpc r13,r19
	cpc r14,r20
	brne .L18
	.loc 1 59 0
	sts usb_ep0_in_size,__zero_reg__
	sts usb_ep0_in_size+1,__zero_reg__
	.loc 1 60 0
	ldi r16,lo8(1)
	movw r18,r24
	mov r22,r14
	movw r20,r12
	ldi r24,lo8(-128)
.LVL14:
	call usb_ep_start_in
.LVL15:
	rjmp .L4
.LVL16:
.L18:
	.loc 1 62 0
	sts usb_ep0_in_size,r24
	sts usb_ep0_in_size+1,r25
	.loc 1 63 0
	sts usb_ep0_in_ptr,r12
	sts usb_ep0_in_ptr+1,r13
	sts usb_ep0_in_ptr+2,r14
	.loc 1 64 0
	call usb_ep0_in_multi
.LVL17:
	rjmp .L4
.LVL18:
.L16:
	.loc 1 69 0
	call usb_ep0_stall
.LVL19:
	rjmp .L4
.L12:
.LBE2:
	.loc 1 73 0
	lds r24,usb_configuration
	sts ep0_buf_in,r24
	.loc 1 74 0
	ldi r24,lo8(1)
	call usb_ep0_in
.LVL20:
	.loc 1 75 0
	call usb_ep0_out
.LVL21:
	rjmp .L4
.L13:
	.loc 1 78 0
	lds r24,usb_setup+2
	call usb_cb_set_configuration
.LVL22:
	tst r24
	breq .L20
	.loc 1 79 0
	ldi r24,0
	call usb_ep0_in
.LVL23:
	.loc 1 80 0
	lds r24,usb_setup+2
	sts usb_configuration,r24
	.loc 1 81 0
	call usb_ep0_out
.LVL24:
	rjmp .L4
.L20:
	.loc 1 83 0
	call usb_ep0_stall
.LVL25:
	rjmp .L4
.L14:
	.loc 1 87 0
	ldi r30,lo8(usb_setup)
	ldi r31,hi8(usb_setup)
	ldd r22,Z+2
	ldd r23,Z+3
	ldd r24,Z+4
	ldd r25,Z+5
	call usb_cb_set_interface
.LVL26:
	tst r24
	breq .L21
	.loc 1 88 0
	ldi r24,0
	call usb_ep0_in
.LVL27:
	.loc 1 89 0
	call usb_ep0_out
.LVL28:
	rjmp .L4
.L21:
	.loc 1 91 0
	call usb_ep0_stall
.LVL29:
	rjmp .L4
.L6:
	.loc 1 95 0
	call usb_ep0_stall
.LVL30:
	rjmp .L4
.L5:
	.loc 1 99 0
	call usb_cb_control_setup
.LVL31:
.L4:
/* epilogue start */
	.loc 1 100 0
	adiw r28,3
	out __SP_L__,r28
	out __SP_H__,r29
	pop r29
	pop r28
	pop r16
	pop r14
	pop r13
	pop r12
	ret
	.cfi_endproc
.LFE3:
	.size	usb_handle_setup, .-usb_handle_setup
	.section	.text.usb_handle_control_out_complete,code
.global	usb_handle_control_out_complete
	.type	usb_handle_control_out_complete, @function
usb_handle_control_out_complete:
.LFB4:
	.loc 1 102 0
	.cfi_startproc
/* prologue: function */
/* frame size = 0 */
/* stack size = 0 */
.L__stack_usage = 0
	.loc 1 103 0
	lds r24,usb_setup
	andi r24,lo8(96)
	breq .L22
	.loc 1 106 0
	call usb_cb_control_out_completion
.LVL32:
.L22:
	ret
	.cfi_endproc
.LFE4:
	.size	usb_handle_control_out_complete, .-usb_handle_control_out_complete
	.section	.text.usb_handle_control_in_complete,code
.global	usb_handle_control_in_complete
	.type	usb_handle_control_in_complete, @function
usb_handle_control_in_complete:
.LFB5:
	.loc 1 110 0
	.cfi_startproc
/* prologue: function */
/* frame size = 0 */
/* stack size = 0 */
.L__stack_usage = 0
	.loc 1 111 0
	lds r24,usb_setup
	andi r24,lo8(96)
	brne .L25
	.loc 1 112 0
	lds r24,usb_setup+1
	cpi r24,lo8(5)
	breq .L27
	cpi r24,lo8(6)
	breq .L28
	ret
.L27:
	.loc 1 114 0
	lds r24,usb_setup+2
	andi r24,lo8(127)
	call usb_set_address
.LVL33:
	.loc 1 115 0
	ret
.L28:
	.loc 1 117 0
	call usb_ep0_in_multi
.LVL34:
	.loc 1 118 0
	ret
.L25:
	.loc 1 121 0
	call usb_cb_control_in_completion
.LVL35:
	ret
	.cfi_endproc
.LFE5:
	.size	usb_handle_control_in_complete, .-usb_handle_control_in_complete
	.section	.text.usb_handle_msft_compatible,code
.global	usb_handle_msft_compatible
	.type	usb_handle_msft_compatible, @function
usb_handle_msft_compatible:
.LFB6:
	.loc 1 125 0
	.cfi_startproc
.LVL36:
	push r16
	.cfi_def_cfa_offset 4
	.cfi_offset 16, -3
	push r17
	.cfi_def_cfa_offset 5
	.cfi_offset 17, -4
	push r28
	.cfi_def_cfa_offset 6
	.cfi_offset 28, -5
	push r29
	.cfi_def_cfa_offset 7
	.cfi_offset 29, -6
/* prologue: function */
/* frame size = 0 */
/* stack size = 4 */
.L__stack_usage = 4
	mov r20,r22
	mov r27,r23
	mov r26,r24
	.loc 1 126 0
	lds r24,usb_setup+4
	lds r25,usb_setup+4+1
	sbiw r24,4
	brne .L30
.LBB3:
	.loc 1 127 0
	lds r28,usb_setup+6
	lds r29,usb_setup+6+1
.LVL37:
	.loc 1 128 0
	mov r30,r22
	mov r31,r23
	mov r21,r26
	call __xload_4
.LVL38:
	movw r16,r28
	ldi r18,0
	ldi r19,0
	cp r22,r16
	cpc r23,r17
	cpc r24,r18
	cpc r25,r19
	brsh .L31
	.loc 1 129 0
	movw r28,r22
.LVL39:
.L31:
	cpi r28,65
	cpc r29,__zero_reg__
	brlo .L32
	ldi r28,lo8(64)
	ldi r29,0
.LVL40:
.L32:
	.loc 1 134 0
	movw r18,r28
	mov r21,r27
	mov r22,r26
	ldi r24,lo8(ep0_buf_in)
	ldi r25,hi8(ep0_buf_in)
	call memcpy
.LVL41:
	.loc 1 135 0
	ldi r20,lo8(ep0_buf_in)
	ldi r21,hi8(ep0_buf_in)
	ldi r22,lo8(-128)
	ldi r16,0
	movw r18,r28
	ldi r24,lo8(-128)
	call usb_ep_start_in
.LVL42:
	.loc 1 136 0
	call usb_ep0_out
.LVL43:
	rjmp .L29
.LVL44:
.L30:
.LBE3:
	.loc 1 138 0
	call usb_ep0_stall
.LVL45:
.L29:
/* epilogue start */
	.loc 1 140 0
	pop r29
	pop r28
	pop r17
	pop r16
	ret
	.cfi_endproc
.LFE6:
	.size	usb_handle_msft_compatible, .-usb_handle_msft_compatible
	.section	.text.usb_string_to_descriptor,code
.global	usb_string_to_descriptor
	.type	usb_string_to_descriptor, @function
usb_string_to_descriptor:
.LFB7:
	.loc 1 142 0
	.cfi_startproc
.LVL46:
	push r28
	.cfi_def_cfa_offset 4
	.cfi_offset 28, -3
	push r29
	.cfi_def_cfa_offset 5
	.cfi_offset 29, -4
/* prologue: function */
/* frame size = 0 */
/* stack size = 2 */
.L__stack_usage = 2
	movw r28,r24
.LVL47:
	.loc 1 144 0
	movw r22,r24
	ldi r24,lo8(-128)
.LVL48:
	call strlen
.LVL49:
	cpi r24,32
	cpc r25,__zero_reg__
	brlo .L35
	ldi r24,lo8(31)
	ldi r25,0
.LVL50:
.L35:
	.loc 1 147 0
	ldi r30,lo8(ep0_buf_in)
	ldi r31,hi8(ep0_buf_in)
	movw r18,r24
	subi r18,-1
	sbci r19,-1
	lsl r18
	st Z,r18
	.loc 1 148 0
	ldi r18,lo8(3)
	std Z+1,r18
.LVL51:
.LBB4:
	.loc 1 149 0
	sbiw r24,0
	breq .L36
	movw r30,r28
	ldi r26,lo8(ep0_buf_in+2)
	ldi r27,hi8(ep0_buf_in+2)
	add r24,r28
	adc r25,r29
.LVL52:
.L37:
	.loc 1 150 0 discriminator 3
	ld r18,Z+
.LVL53:
	ldi r19,0
	st X+,r18
	st X+,r19
.LVL54:
	.loc 1 149 0 discriminator 3
	cp r30,r24
	cpc r31,r25
	brne .L37
.LVL55:
.L36:
.LBE4:
	.loc 1 153 0
	ldi r24,lo8(ep0_buf_in)
	ldi r25,hi8(ep0_buf_in)
/* epilogue start */
	pop r29
	pop r28
.LVL56:
	ret
	.cfi_endproc
.LFE7:
	.size	usb_string_to_descriptor, .-usb_string_to_descriptor
	.comm	usb_ep0_in_ptr,3,1
	.comm	usb_ep0_in_size,2,1
	.comm	usb_configuration,1,1
	.comm	ep0_buf_out,64,4
	.comm	ep0_buf_in,64,4
	.comm	usb_setup,8,1
	.comm	USB_dtype,1,1
	.section	.text,code
.Letext0:
	.file 2 "/opt/microchip/xc8/v2.10/avr/avr/include/stdint.h"
	.file 3 "usb/usb_standard.h"
	.file 4 "usb/usb.h"
	.file 5 "/opt/microchip/xc8/v2.10/avr/avr/include/string.h"