	.file	"usb_xmega.c"
__SP_H__ = 0x3e
__SP_L__ = 0x3d
__SREG__ = 0x3f
__RAMPZ__ = 0x3b
__CCP__ = 0x34
__tmp_reg__ = 0
__zero_reg__ = 1
	.section	.text,code
.Ltext0:
	.cfi_sections	.debug_frame
	.section	.text.usb_reset,code
.global	usb_reset
	.type	usb_reset, @function
usb_reset:
.LFB10:
	.file 1 "usb/usb_xmega.c"
	.loc 1 21 0
	.cfi_startproc
/* prologue: function */
/* frame size = 0 */
/* stack size = 0 */
.L__stack_usage = 0
	.loc 1 26 0
	ldi r24,lo8(3)
	sts 68,r24
	.loc 1 27 0
	ldi r30,lo8(usb_xmega_endpoints)
	ldi r31,hi8(usb_xmega_endpoints)
	ldi r26,lo8(-64)
	ldi r27,lo8(4)
	adiw r26,6
	st X+,r30
	st X,r31
	sbiw r26,6+1
	.loc 1 28 0
	adiw r26,3
	st X,__zero_reg__
	sbiw r26,3
	.loc 1 30 0
	st Z,__zero_reg__
	.loc 1 31 0
	ldi r24,lo8(67)
	std Z+1,r24
	.loc 1 32 0
	ldi r18,lo8(ep0_buf_out)
	ldi r19,hi8(ep0_buf_out)
	std Z+4,r18
	std Z+5,r19
	.loc 1 33 0
	ldi r25,lo8(2)
	std Z+8,r25
	.loc 1 34 0
	std Z+9,r24
	.loc 1 35 0
	ldi r24,lo8(ep0_buf_in)
	ldi r25,hi8(ep0_buf_in)
	std Z+12,r24
	std Z+13,r25
	.loc 1 37 0
	ldi r18,lo8(usb_num_endpoints)
	ldi r19,hi8(usb_num_endpoints)
	ldi r20,hlo8(usb_num_endpoints)
	movw r30,r18
	mov r21,r20
	call __xload_1
	subi r22,lo8(-(1))
	ori r22,lo8(-64)
	st X,r22
	ret
	.cfi_endproc
.LFE10:
	.size	usb_reset, .-usb_reset
	.section	.text.usb_init,code
.global	usb_init
	.type	usb_init, @function
usb_init:
.LFB9:
	.loc 1 7 0
	.cfi_startproc
	push r28
	.cfi_def_cfa_offset 4
	.cfi_offset 28, -3
	push r29
	.cfi_def_cfa_offset 5
	.cfi_offset 29, -4
/* prologue: function */
/* frame size = 0 */
/* stack size = 2 */
.L__stack_usage = 2
	.loc 1 11 0
	ldi r28,lo8(-64)
	ldi r29,lo8(1)
	ldi r24,lo8(2)
	std Y+10,r24
.LVL0:
.LBB4:
	.loc 1 12 0
	ldi r30,lo8(26)
	ldi r31,0
/* #APP */
 ;  12 "usb/usb_xmega.c" 1
	lpm r30, Z
	
 ;  0 "" 2
.LVL1:
/* #NOAPP */
.LBE4:
	.loc 1 12 0
	ldi r26,lo8(-64)
	ldi r27,lo8(4)
	adiw r26,58
	st X,r30
	sbiw r26,58
	.loc 1 13 0
	std Y+10,r24
.LVL2:
.LBB5:
	.loc 1 14 0
	ldi r30,lo8(27)
	ldi r31,0
.LVL3:
/* #APP */
 ;  14 "usb/usb_xmega.c" 1
	lpm r30, Z
	
 ;  0 "" 2
.LVL4:
/* #NOAPP */
.LBE5:
	.loc 1 14 0
	adiw r26,59
	st X,r30
	.loc 1 18 0
	call usb_reset
.LVL5:
/* epilogue start */
	.loc 1 19 0
	pop r29
	pop r28
	ret
	.cfi_endproc
.LFE9:
	.size	usb_init, .-usb_init
	.section	.text.usb_set_address,code
.global	usb_set_address
	.type	usb_set_address, @function
usb_set_address:
.LFB11:
	.loc 1 40 0
	.cfi_startproc
.LVL6:
/* prologue: function */
/* frame size = 0 */
/* stack size = 0 */
.L__stack_usage = 0
	.loc 1 41 0
	sts 1219,r24
	ret
	.cfi_endproc
.LFE11:
	.size	usb_set_address, .-usb_set_address
	.section	.text.usb_ep0_from_progmem,code
.global	usb_ep0_from_progmem
	.type	usb_ep0_from_progmem, @function
usb_ep0_from_progmem:
.LFB12:
	.loc 1 44 0
	.cfi_startproc
.LVL7:
/* prologue: function */
/* frame size = 0 */
/* stack size = 0 */
.L__stack_usage = 0
	.loc 1 47 0
	sts 458,__zero_reg__
.LVL8:
	.loc 1 48 0
	cp r20,__zero_reg__
	cpc r21,__zero_reg__
	breq .L5
	mov r26,r24
	movw r24,r22
	movw r30,r24
	ldi r26,lo8(ep0_buf_in)
	ldi r27,hi8(ep0_buf_in)
	subi r20,lo8(-(ep0_buf_in))
	sbci r21,hi8(-(ep0_buf_in))
.LVL9:
.L6:
.LBB6:
	.loc 1 49 0
/* #APP */
 ;  49 "usb/usb_xmega.c" 1
	lpm r18, Z
	
 ;  0 "" 2
.LVL10:
/* #NOAPP */
.LBE6:
	.loc 1 49 0
	st X+,r18
.LVL11:
	adiw r30,1
.LVL12:
	.loc 1 48 0
	cp r26,r20
	cpc r27,r21
	brne .L6
.LVL13:
.L5:
	.loc 1 51 0
	ldi r22,lo8(ep0_buf_in)
	ldi r23,hi8(ep0_buf_in)
	ldi r24,lo8(-128)
	.loc 1 52 0
	ret
	.cfi_endproc
.LFE12:
	.size	usb_ep0_from_progmem, .-usb_ep0_from_progmem
	.section	.text.usb_ep_start_out,code
.global	usb_ep_start_out
	.type	usb_ep_start_out, @function
usb_ep_start_out:
.LFB16:
	.loc 1 74 0
	.cfi_startproc
.LVL14:
	push r16
	.cfi_def_cfa_offset 4
	.cfi_offset 16, -3
/* prologue: function */
/* frame size = 0 */
/* stack size = 1 */
.L__stack_usage = 1
	.loc 1 75 0
	mov r30,r24
	andi r30,lo8(63)
	ldi r31,0
.LVL15:
	mov __tmp_reg__,r24
	lsl r0
	sbc r25,r25
	mov r18,r25
	rol r18
	clr r18
	rol r18
	ldi r19,0
.LVL16:
	.loc 1 76 0
	lsl r30
	rol r31
.LVL17:
	add r30,r18
	adc r31,r19
	lsl r30
	rol r31
	lsl r30
	rol r31
	lsl r30
	rol r31
	subi r30,lo8(-(usb_xmega_endpoints))
	sbci r31,hi8(-(usb_xmega_endpoints))
.LVL18:
	std Z+4,r22
	std Z+5,r23
	.loc 1 77 0
/* #APP */
 ;  77 "usb/usb_xmega.c" 1
	ldi r16, 34
	.dc.w 0x9306
	
 ;  0 "" 2
	.loc 1 79 0
/* #NOAPP */
	ldi r24,0
.LVL19:
/* epilogue start */
	pop r16
	ret
	.cfi_endproc
.LFE16:
	.size	usb_ep_start_out, .-usb_ep_start_out
	.section	.text.usb_ep_start_in,code
.global	usb_ep_start_in
	.type	usb_ep_start_in, @function
usb_ep_start_in:
.LFB17:
	.loc 1 81 0
	.cfi_startproc
.LVL20:
	push r12
	.cfi_def_cfa_offset 4
	.cfi_offset 12, -3
	push r13
	.cfi_def_cfa_offset 5
	.cfi_offset 13, -4
	push r14
	.cfi_def_cfa_offset 6
	.cfi_offset 14, -5
	push r16
	.cfi_def_cfa_offset 7
	.cfi_offset 16, -6
	push r17
	.cfi_def_cfa_offset 8
	.cfi_offset 17, -7
/* prologue: function */
/* frame size = 0 */
/* stack size = 5 */
.L__stack_usage = 5
	movw r12,r20
	mov r14,r22
	.loc 1 82 0
	mov r30,r24
	andi r30,lo8(63)
	ldi r31,0
.LVL21:
	mov __tmp_reg__,r24
	lsl r0
	sbc r25,r25
	mov r22,r25
	rol r22
	clr r22
	rol r22
	ldi r23,0
.LVL22:
	.loc 1 83 0
	lsl r30
	rol r31
.LVL23:
	add r30,r22
	adc r31,r23
	lsl r30
	rol r31
	lsl r30
	rol r31
	lsl r30
	rol r31
	subi r30,lo8(-(usb_xmega_endpoints))
	sbci r31,hi8(-(usb_xmega_endpoints))
.LVL24:
	std Z+4,r12
	std Z+5,r13
	.loc 1 84 0
	ldi r17,0
	clr r17
	lsr r16
	ror r17
	clr r16
.LVL25:
	or r16,r18
	or r17,r19
	std Z+2,r16
	std Z+3,r17
	.loc 1 85 0
/* #APP */
 ;  85 "usb/usb_xmega.c" 1
	ldi r16, 34
	.dc.w 0x9306
	
 ;  0 "" 2
	.loc 1 87 0
/* #NOAPP */
	ldi r24,0
.LVL26:
/* epilogue start */
	pop r17
.LVL27:
	pop r16
.LVL28:
	pop r14
	pop r13
	pop r12
	ret
	.cfi_endproc
.LFE17:
	.size	usb_ep_start_in, .-usb_ep_start_in
	.section	.text.usb_ep_ready,code
.global	usb_ep_ready
	.type	usb_ep_ready, @function
usb_ep_ready:
.LFB18:
	.loc 1 89 0
	.cfi_startproc
.LVL29:
/* prologue: function */
/* frame size = 0 */
/* stack size = 0 */
.L__stack_usage = 0
	.loc 1 90 0
	mov r30,r24
	andi r30,lo8(63)
	ldi r31,0
.LVL30:
	mov __tmp_reg__,r24
	lsl r0
	sbc r25,r25
	mov r18,r25
	rol r18
	clr r18
	rol r18
	ldi r19,0
.LVL31:
	.loc 1 91 0
	lsl r30
	rol r31
.LVL32:
	add r30,r18
	adc r31,r19
	lsl r30
	rol r31
	lsl r30
	rol r31
	lsl r30
	rol r31
	subi r30,lo8(-(usb_xmega_endpoints))
	sbci r31,hi8(-(usb_xmega_endpoints))
.LVL33:
	ld r25,Z
	andi r25,lo8(34)
	ldi r24,lo8(1)
.LVL34:
	breq .L11
	ldi r24,0
.L11:
	.loc 1 92 0
	ret
	.cfi_endproc
.LFE18:
	.size	usb_ep_ready, .-usb_ep_ready
	.section	.text.usb_ep_pending,code
.global	usb_ep_pending
	.type	usb_ep_pending, @function
usb_ep_pending:
.LFB20:
	.loc 1 99 0
	.cfi_startproc
.LVL35:
/* prologue: function */
/* frame size = 0 */
/* stack size = 0 */
.L__stack_usage = 0
	.loc 1 100 0
	mov r30,r24
	andi r30,lo8(63)
	ldi r31,0
.LVL36:
	mov __tmp_reg__,r24
	lsl r0
	sbc r25,r25
	mov r18,r25
	rol r18
	clr r18
	rol r18
	ldi r19,0
.LVL37:
	.loc 1 101 0
	lsl r30
	rol r31
.LVL38:
	add r30,r18
	adc r31,r19
	lsl r30
	rol r31
	lsl r30
	rol r31
	lsl r30
	rol r31
	subi r30,lo8(-(usb_xmega_endpoints))
	sbci r31,hi8(-(usb_xmega_endpoints))
.LVL39:
	ld r24,Z
.LVL40:
	.loc 1 102 0
	bst r24,5
	clr r24
	bld r24,0
	ret
	.cfi_endproc
.LFE20:
	.size	usb_ep_pending, .-usb_ep_pending
	.section	.text.usb_ep_handled,code
.global	usb_ep_handled
	.type	usb_ep_handled, @function
usb_ep_handled:
.LFB21:
	.loc 1 104 0
	.cfi_startproc
.LVL41:
	push r16
	.cfi_def_cfa_offset 4
	.cfi_offset 16, -3
/* prologue: function */
/* frame size = 0 */
/* stack size = 1 */
.L__stack_usage = 1
.LVL42:
	.loc 1 106 0
	mov r30,r24
	andi r30,lo8(63)
	ldi r31,0
	lsl r30
	rol r31
	mov __tmp_reg__,r24
	lsl r0
	sbc r25,r25
	clr r24
	lsl r25
	rol r24
	clr r25
.LVL43:
	add r30,r24
	adc r31,r25
	lsl r30
	rol r31
	lsl r30
	rol r31
	lsl r30
	rol r31
	subi r30,lo8(-(usb_xmega_endpoints))
	sbci r31,hi8(-(usb_xmega_endpoints))
/* #APP */
 ;  106 "usb/usb_xmega.c" 1
	ldi r16, 32
	.dc.w 0x9306
	
 ;  0 "" 2
/* epilogue start */
	.loc 1 107 0
/* #NOAPP */
	pop r16
	ret
	.cfi_endproc
.LFE21:
	.size	usb_ep_handled, .-usb_ep_handled
	.section	.text.usb_ep_out_length,code
.global	usb_ep_out_length
	.type	usb_ep_out_length, @function
usb_ep_out_length:
.LFB22:
	.loc 1 109 0
	.cfi_startproc
.LVL44:
/* prologue: function */
/* frame size = 0 */
/* stack size = 0 */
.L__stack_usage = 0
	.loc 1 110 0
	mov r30,r24
	andi r30,lo8(63)
	ldi r31,0
.LVL45:
	mov __tmp_reg__,r24
	lsl r0
	sbc r25,r25
	mov r18,r25
	rol r18
	clr r18
	rol r18
	ldi r19,0
.LVL46:
	.loc 1 111 0
	lsl r30
	rol r31
.LVL47:
	add r30,r18
	adc r31,r19
	lsl r30
	rol r31
	lsl r30
	rol r31
	lsl r30
	rol r31
	subi r30,lo8(-(usb_xmega_endpoints))
	sbci r31,hi8(-(usb_xmega_endpoints))
.LVL48:
	ldd r24,Z+2
	ldd r25,Z+3
.LVL49:
	.loc 1 112 0
	ret
	.cfi_endproc
.LFE22:
	.size	usb_ep_out_length, .-usb_ep_out_length
	.section	.text.usb_detach,code
.global	usb_detach
	.type	usb_detach, @function
usb_detach:
.LFB23:
	.loc 1 115 0
	.cfi_startproc
/* prologue: function */
/* frame size = 0 */
/* stack size = 0 */
.L__stack_usage = 0
	.loc 1 116 0
	ldi r30,lo8(-64)
	ldi r31,lo8(4)
	ldd r24,Z+1
	andi r24,lo8(-2)
	std Z+1,r24
	ret
	.cfi_endproc
.LFE23:
	.size	usb_detach, .-usb_detach
	.section	.text.usb_attach,code
.global	usb_attach
	.type	usb_attach, @function
usb_attach:
.LFB24:
	.loc 1 120 0
	.cfi_startproc
/* prologue: function */
/* frame size = 0 */
/* stack size = 0 */
.L__stack_usage = 0
	.loc 1 121 0
	ldi r30,lo8(-64)
	ldi r31,lo8(4)
	ldd r24,Z+1
	ori r24,lo8(1)
	std Z+1,r24
	ret
	.cfi_endproc
.LFE24:
	.size	usb_attach, .-usb_attach
	.section	.text.usb_ep0_out,code
.global	usb_ep0_out
	.type	usb_ep0_out, @function
usb_ep0_out:
.LFB25:
	.loc 1 125 0
	.cfi_startproc
	push r16
	.cfi_def_cfa_offset 4
	.cfi_offset 16, -3
/* prologue: function */
/* frame size = 0 */
/* stack size = 1 */
.L__stack_usage = 1
	.loc 1 126 0
	ldi r30,lo8(usb_xmega_endpoints)
	ldi r31,hi8(usb_xmega_endpoints)
/* #APP */
 ;  126 "usb/usb_xmega.c" 1
	ldi r16, 114
	.dc.w 0x9306
	
 ;  0 "" 2
/* epilogue start */
	.loc 1 127 0
/* #NOAPP */
	pop r16
	ret
	.cfi_endproc
.LFE25:
	.size	usb_ep0_out, .-usb_ep0_out
	.section	.text.usb_ep0_in,code
.global	usb_ep0_in
	.type	usb_ep0_in, @function
usb_ep0_in:
.LFB26:
	.loc 1 129 0
	.cfi_startproc
.LVL50:
	push r16
	.cfi_def_cfa_offset 4
	.cfi_offset 16, -3
/* prologue: function */
/* frame size = 0 */
/* stack size = 1 */
.L__stack_usage = 1
	.loc 1 130 0
	ldi r25,0
.LVL51:
.LBB7:
.LBB8:
	.loc 1 83 0
	ldi r18,lo8(ep0_buf_in)
	ldi r19,hi8(ep0_buf_in)
	ldi r30,lo8(usb_xmega_endpoints)
	ldi r31,hi8(usb_xmega_endpoints)
	std Z+12,r18
	std Z+13,r19
	.loc 1 84 0
	std Z+10,r24
	std Z+11,r25
	.loc 1 85 0
	ldi r30,lo8(usb_xmega_endpoints+8)
	ldi r31,hi8(usb_xmega_endpoints+8)
.LVL52:
/* #APP */
 ;  85 "usb/usb_xmega.c" 1
	ldi r16, 34
	.dc.w 0x9306
	
 ;  0 "" 2
.LVL53:
/* epilogue start */
/* #NOAPP */
.LBE8:
.LBE7:
	.loc 1 131 0
	pop r16
	ret
	.cfi_endproc
.LFE26:
	.size	usb_ep0_in, .-usb_ep0_in
	.section	.text.usb_ep0_stall,code
.global	usb_ep0_stall
	.type	usb_ep0_stall, @function
usb_ep0_stall:
.LFB27:
	.loc 1 133 0
	.cfi_startproc
/* prologue: function */
/* frame size = 0 */
/* stack size = 0 */
.L__stack_usage = 0
	.loc 1 134 0
	ldi r30,lo8(usb_xmega_endpoints)
	ldi r31,hi8(usb_xmega_endpoints)
	ldd r24,Z+1
	ori r24,lo8(4)
	std Z+1,r24
	.loc 1 135 0
	ldd r24,Z+9
	ori r24,lo8(4)
	std Z+9,r24
	ret
	.cfi_endproc
.LFE27:
	.size	usb_ep0_stall, .-usb_ep0_stall
	.section	.text.usb_set_speed,code
.global	usb_set_speed
	.type	usb_set_speed, @function
usb_set_speed:
.LFB28:
	.loc 1 138 0
	.cfi_startproc
.LVL54:
/* prologue: function */
/* frame size = 0 */
/* stack size = 0 */
.L__stack_usage = 0
	ret
	.cfi_endproc
.LFE28:
	.size	usb_set_speed, .-usb_set_speed
	.section	.text.usb_get_speed,code
.global	usb_get_speed
	.type	usb_get_speed, @function
usb_get_speed:
.LFB29:
	.loc 1 139 0
	.cfi_startproc
/* prologue: function */
/* frame size = 0 */
/* stack size = 0 */
.L__stack_usage = 0
	.loc 1 139 0
	ldi r24,lo8(1)
	ret
	.cfi_endproc
.LFE29:
	.size	usb_get_speed, .-usb_get_speed
	.section	.text.usb_configure_clock,code
.global	usb_configure_clock
	.type	usb_configure_clock, @function
usb_configure_clock:
.LFB30:
	.loc 1 141 0
	.cfi_startproc
	push r28
	.cfi_def_cfa_offset 4
	.cfi_offset 28, -3
	push r29
	.cfi_def_cfa_offset 5
	.cfi_offset 29, -4
/* prologue: function */
/* frame size = 0 */
/* stack size = 2 */
.L__stack_usage = 2
	.loc 1 143 0
	ldi r28,lo8(80)
	ldi r29,0
	ldi r24,lo8(4)
	std Y+6,r24
	.loc 1 144 0
	ldi r24,lo8(2)
	sts 458,r24
.LVL55:
.LBB9:
	.loc 1 145 0
	ldi r30,lo8(28)
	ldi r31,0
/* #APP */
 ;  145 "usb/usb_xmega.c" 1
	lpm r30, Z
	
 ;  0 "" 2
.LVL56:
/* #NOAPP */
.LBE9:
	.loc 1 145 0
	ldi r26,lo8(96)
	ldi r27,0
	adiw r26,3
	st X,r30
	sbiw r26,3
	.loc 1 146 0
	ldi r24,lo8(27)
	adiw r26,5
	st X,r24
	sbiw r26,5
	.loc 1 147 0
	ldi r24,lo8(-73)
	adiw r26,6
	st X,r24
	sbiw r26,6
	.loc 1 148 0
	ldi r24,lo8(1)
	st X,r24
	.loc 1 150 0
	ldi r24,lo8(-40)
	out __CCP__,r24
	.loc 1 151 0
	ldi r24,lo8(3)
	st Y,r24
	.loc 1 153 0
	ldi r30,lo8(80)
	ldi r31,0
.LVL57:
.L23:
	.loc 1 153 0 is_stmt 0 discriminator 1
	ldd r24,Z+1
	.loc 1 153 0 is_stmt 1 discriminator 1
	sbrs r24,1
	rjmp .L23
	.loc 1 155 0
	ldi r30,lo8(80)
	ldi r31,0
	ldi r24,lo8(16)
	std Z+5,r24
	.loc 1 157 0
	ldi r24,lo8(-40)
	out __CCP__,r24
	.loc 1 158 0
	ldi r24,lo8(19)
	st Z,r24
.L24:
	.loc 1 160 0 discriminator 1
	ldd r24,Z+1
	.loc 1 160 0 discriminator 1
	sbrs r24,4
	rjmp .L24
	.loc 1 162 0
	ldi r24,lo8(1)
	sts 104,r24
	.loc 1 164 0
	ldi r24,lo8(-40)
	out __CCP__,r24
	.loc 1 165 0
	ldi r30,lo8(64)
	ldi r31,0
	ldi r24,lo8(4)
	st Z,r24
	.loc 1 166 0
	std Z+1,__zero_reg__
/* epilogue start */
	.loc 1 167 0
	pop r29
	pop r28
	ret
	.cfi_endproc
.LFE30:
	.size	usb_configure_clock, .-usb_configure_clock
	.section	.text.__vector_125,code
.global	__vector_125
	.type	__vector_125, @function
__vector_125:
.LFB31:
	.loc 1 169 0
	.cfi_startproc
	push r1
	.cfi_def_cfa_offset 4
	.cfi_offset 1, -3
	push r0
	.cfi_def_cfa_offset 5
	.cfi_offset 0, -4
	in r0,__SREG__
	push r0
	clr __zero_reg__
	in r0,__RAMPZ__
	push r0
	push r18
	.cfi_def_cfa_offset 6
	.cfi_offset 18, -5
	push r19
	.cfi_def_cfa_offset 7
	.cfi_offset 19, -6
	push r20
	.cfi_def_cfa_offset 8
	.cfi_offset 20, -7
	push r21
	.cfi_def_cfa_offset 9
	.cfi_offset 21, -8
	push r22
	.cfi_def_cfa_offset 10
	.cfi_offset 22, -9
	push r23
	.cfi_def_cfa_offset 11
	.cfi_offset 23, -10
	push r24
	.cfi_def_cfa_offset 12
	.cfi_offset 24, -11
	push r25
	.cfi_def_cfa_offset 13
	.cfi_offset 25, -12
	push r26
	.cfi_def_cfa_offset 14
	.cfi_offset 26, -13
	push r27
	.cfi_def_cfa_offset 15
	.cfi_offset 27, -14
	push r30
	.cfi_def_cfa_offset 16
	.cfi_offset 30, -15
	push r31
	.cfi_def_cfa_offset 17
	.cfi_offset 31, -16
/* prologue: Signal */
/* frame size = 0 */
/* stack size = 16 */
.L__stack_usage = 16
	.loc 1 170 0
	lds r24,1226
	.loc 1 170 0
	tst r24
	brge .L28
	.loc 1 171 0
	ldi r24,lo8(-128)
	sts 1226,r24
	rjmp .L27
.L28:
	.loc 1 172 0
	lds r24,1226
	.loc 1 172 0
	andi r24,lo8(14)
	breq .L30
	.loc 1 173 0
	ldi r24,lo8(14)
	sts 1226,r24
	rjmp .L27
.L30:
	.loc 1 174 0
	lds r24,1226
	.loc 1 174 0
	sbrs r24,0
	rjmp .L31
	.loc 1 175 0
	ldi r24,lo8(1)
	sts 1226,r24
	rjmp .L27
.L31:
	.loc 1 177 0
	ldi r30,lo8(-64)
	ldi r31,lo8(4)
	ldi r24,lo8(112)
	std Z+10,r24
	.loc 1 178 0
	ldd r24,Z+2
	.loc 1 178 0
	sbrs r24,0
	rjmp .L27
	.loc 1 179 0
	ldd r24,Z+2
	andi r24,lo8(-2)
	std Z+2,r24
	.loc 1 180 0
	call usb_reset
.LVL58:
	.loc 1 181 0
	call usb_cb_reset
.LVL59:
.L27:
/* epilogue start */
	.loc 1 184 0
	pop r31
	pop r30
	pop r27
	pop r26
	pop r25
	pop r24
	pop r23
	pop r22
	pop r21
	pop r20
	pop r19
	pop r18
	pop r0
	out __RAMPZ__,r0
	pop r0
	out __SREG__,r0
	pop r0
	pop r1
	reti
	.cfi_endproc
.LFE31:
	.size	__vector_125, .-__vector_125
	.section	.text.__vector_126,code
.global	__vector_126
	.type	__vector_126, @function
__vector_126:
.LFB32:
	.loc 1 186 0
	.cfi_startproc
	push r1
	.cfi_def_cfa_offset 4
	.cfi_offset 1, -3
	push r0
	.cfi_def_cfa_offset 5
	.cfi_offset 0, -4
	in r0,__SREG__
	push r0
	clr __zero_reg__
	in r0,__RAMPZ__
	push r0
	push r16
	.cfi_def_cfa_offset 6
	.cfi_offset 16, -5
	push r18
	.cfi_def_cfa_offset 7
	.cfi_offset 18, -6
	push r19
	.cfi_def_cfa_offset 8
	.cfi_offset 19, -7
	push r20
	.cfi_def_cfa_offset 9
	.cfi_offset 20, -8
	push r21
	.cfi_def_cfa_offset 10
	.cfi_offset 21, -9
	push r22
	.cfi_def_cfa_offset 11
	.cfi_offset 22, -10
	push r23
	.cfi_def_cfa_offset 12
	.cfi_offset 23, -11
	push r24
	.cfi_def_cfa_offset 13
	.cfi_offset 24, -12
	push r25
	.cfi_def_cfa_offset 14
	.cfi_offset 25, -13
	push r26
	.cfi_def_cfa_offset 15
	.cfi_offset 26, -14
	push r27
	.cfi_def_cfa_offset 16
	.cfi_offset 27, -15
	push r30
	.cfi_def_cfa_offset 17
	.cfi_offset 30, -16
	push r31
	.cfi_def_cfa_offset 18
	.cfi_offset 31, -17
/* prologue: Signal */
/* frame size = 0 */
/* stack size = 17 */
.L__stack_usage = 17
	.loc 1 187 0
	ldi r30,lo8(-64)
	ldi r31,lo8(4)
	std Z+4,__zero_reg__
	.loc 1 188 0
	ldi r24,lo8(3)
	std Z+12,r24
	.loc 1 191 0
	lds r24,usb_xmega_endpoints
.LVL60:
	.loc 1 192 0
	sbrs r24,4
	rjmp .L33
	.loc 1 194 0
	ldi r30,lo8(usb_xmega_endpoints)
	ldi r31,hi8(usb_xmega_endpoints)
/* #APP */
 ;  194 "usb/usb_xmega.c" 1
	ldi r16, 48
	.dc.w 0x9306
	
 ;  0 "" 2
	.loc 1 195 0
/* #NOAPP */
	ldi r20,lo8(ep0_buf_out)
	ldi r21,hi8(ep0_buf_out)
	ldi r22,lo8(-128)
	ldi r18,lo8(8)
	ldi r19,0
	ldi r24,lo8(usb_setup)
	ldi r25,hi8(usb_setup)
.LVL61:
	call memcpy
.LVL62:
	.loc 1 196 0
	call usb_handle_setup
.LVL63:
	rjmp .L34
.LVL64:
.L33:
	.loc 1 197 0
	sbrc r24,5
	.loc 1 198 0
	call usb_handle_control_out_complete
.LVL65:
.L34:
	.loc 1 201 0
	lds r24,usb_xmega_endpoints+8
	sbrc r24,5
	.loc 1 202 0
	call usb_handle_control_in_complete
.LVL66:
.L35:
	.loc 1 205 0
	call usb_cb_completion
.LVL67:
/* epilogue start */
	.loc 1 206 0
	pop r31
	pop r30
	pop r27
	pop r26
	pop r25
	pop r24
	pop r23
	pop r22
	pop r21
	pop r20
	pop r19
	pop r18
	pop r16
	pop r0
	out __RAMPZ__,r0
	pop r0
	out __SREG__,r0
	pop r0
	pop r1
	reti
	.cfi_endproc
.LFE32:
	.size	__vector_126, .-__vector_126
	.comm	USB_dtype,1,1
	.section	.text,code
.Letext0:
	.file 2 "/opt/microchip/xc8/v2.10/avr/avr/include/stdint.h"
	.file 3 "/opt/microchip/xc8/v2.10/dfp/include/avr/iox128a3u.h"
	.file 4 "/opt/microchip/xc8/v2.10/avr/lib/gcc/avr/5.4.0/include/stddef.h"
	.file 5 "usb/usb_standard.h"
	.file 6 "usb/usb.h"
	.file 7 "usb/usb_xmega.h"
	.file 8 "/opt/microchip/xc8/v2.10/avr/avr/include/string.h"