	.file	"w5100.c"
__SP_H__ = 0x3e
__SP_L__ = 0x3d
__SREG__ = 0x3f
__RAMPZ__ = 0x3b
__CCP__ = 0x34
__tmp_reg__ = 0
__zero_reg__ = 1
	.section	.text,code
.Ltext0:
	.cfi_sections	.debug_frame
	.section	.text.delay_w51_1,code
.global	delay_w51_1
	.type	delay_w51_1, @function
delay_w51_1:
.LFB6:
	.file 1 "w5100/w5100.c"
	.loc 1 64 0
	.cfi_startproc
/* prologue: function */
/* frame size = 0 */
/* stack size = 0 */
.L__stack_usage = 0
	ret
	.cfi_endproc
.LFE6:
	.size	delay_w51_1, .-delay_w51_1
	.section	.text.select_w5100,code
.global	select_w5100
	.type	select_w5100, @function
select_w5100:
.LFB7:
	.loc 1 71 0
	.cfi_startproc
/* prologue: function */
/* frame size = 0 */
/* stack size = 0 */
.L__stack_usage = 0
	.loc 1 72 0
	ldi r24,lo8(16)
	sts 1606,r24
	ret
	.cfi_endproc
.LFE7:
	.size	select_w5100, .-select_w5100
	.section	.text.deselect_w5100,code
.global	deselect_w5100
	.type	deselect_w5100, @function
deselect_w5100:
.LFB8:
	.loc 1 76 0
	.cfi_startproc
/* prologue: function */
/* frame size = 0 */
/* stack size = 0 */
.L__stack_usage = 0
	.loc 1 77 0
	ldi r24,lo8(16)
	sts 1605,r24
	ret
	.cfi_endproc
.LFE8:
	.size	deselect_w5100, .-deselect_w5100
	.section	.text.reset_w5100,code
.global	reset_w5100
	.type	reset_w5100, @function
reset_w5100:
.LFB9:
	.loc 1 81 0
	.cfi_startproc
/* prologue: function */
/* frame size = 0 */
/* stack size = 0 */
.L__stack_usage = 0
	.loc 1 82 0
	ldi r24,lo8(8)
	sts 1606,r24
.LVL0:
.LBB22:
.LBB23:
	.file 2 "/opt/microchip/xc8/v2.10/avr/avr/include/util/delay.h"
	.loc 2 187 0
	ldi r30,lo8(-25537)
	ldi r31,hi8(-25537)
1:	sbiw r30,1
	brne 1b
	rjmp .
	nop
.LVL1:
.LBE23:
.LBE22:
	.loc 1 84 0
	sts 1605,r24
.LVL2:
.LBB24:
.LBB25:
	.loc 2 187 0
	ldi r31,lo8(63999)
	ldi r18,hi8(63999)
	ldi r24,hlo8(63999)
1:	subi r31,1
	sbci r18,0
	sbci r24,0
	brne 1b
	rjmp .
	nop
.LVL3:
	ret
.LBE25:
.LBE24:
	.cfi_endproc
.LFE9:
	.size	reset_w5100, .-reset_w5100
	.section	.text.W51_write,code
.global	W51_write
	.type	W51_write, @function
W51_write:
.LFB10:
	.loc 1 91 0
	.cfi_startproc
.LVL4:
	push r28
	.cfi_def_cfa_offset 4
	.cfi_offset 28, -3
	push r29
	.cfi_def_cfa_offset 5
	.cfi_offset 29, -4
	push __zero_reg__
	.cfi_def_cfa_offset 6
	in r28,__SP_L__
	in r29,__SP_H__
	.cfi_def_cfa_register 28
/* prologue: function */
/* frame size = 1 */
/* stack size = 3 */
.L__stack_usage = 3
.LBB32:
.LBB33:
	.loc 1 72 0
	ldi r18,lo8(16)
	sts 1606,r18
.LVL5:
.LBE33:
.LBE32:
.LBB34:
.LBB35:
	.loc 2 276 0
	ldi r18,lo8(10)
1:	dec r18
	brne 1b
	rjmp .
.LVL6:
.LBE35:
.LBE34:
	.loc 1 99 0
	ldi r18,lo8(-16)
	std Y+1,r18
	.loc 1 100 0
	ldd r18,Y+1
	sts 2243,r18
	.loc 1 101 0
	ldi r30,lo8(-64)
	ldi r31,lo8(8)
.L6:
	.loc 1 101 0 is_stmt 0 discriminator 1
	ldd r18,Z+2
	.loc 1 101 0 is_stmt 1 discriminator 1
	tst r18
	brge .L6
	.loc 1 104 0
	std Y+1,r25
	.loc 1 105 0
	ldd r25,Y+1
	sts 2243,r25
	.loc 1 106 0
	ldi r30,lo8(-64)
	ldi r31,lo8(8)
.L7:
	.loc 1 106 0 is_stmt 0 discriminator 1
	ldd r25,Z+2
	.loc 1 106 0 is_stmt 1 discriminator 1
	tst r25
	brge .L7
	.loc 1 109 0
	std Y+1,r24
	.loc 1 110 0
	ldd r24,Y+1
.LVL7:
	sts 2243,r24
	.loc 1 111 0
	ldi r30,lo8(-64)
	ldi r31,lo8(8)
.L8:
	.loc 1 111 0 is_stmt 0 discriminator 1
	ldd r24,Z+2
	.loc 1 111 0 is_stmt 1 discriminator 1
	tst r24
	brge .L8
	.loc 1 114 0
	std Y+1,r22
	.loc 1 115 0
	ldd r24,Y+1
	sts 2243,r24
	.loc 1 116 0
	ldi r30,lo8(-64)
	ldi r31,lo8(8)
.L9:
	.loc 1 116 0 is_stmt 0 discriminator 1
	ldd r24,Z+2
	.loc 1 116 0 is_stmt 1 discriminator 1
	tst r24
	brge .L9
.LBB36:
.LBB37:
	.loc 1 77 0
	ldi r24,lo8(16)
	sts 1605,r24
/* epilogue start */
.LBE37:
.LBE36:
	.loc 1 120 0
	pop __tmp_reg__
	pop r29
	pop r28
	ret
	.cfi_endproc
.LFE10:
	.size	W51_write, .-W51_write
	.section	.text.W51_read,code
.global	W51_read
	.type	W51_read, @function
W51_read:
.LFB11:
	.loc 1 124 0
	.cfi_startproc
.LVL8:
	push r28
	.cfi_def_cfa_offset 4
	.cfi_offset 28, -3
	push r29
	.cfi_def_cfa_offset 5
	.cfi_offset 29, -4
	push __zero_reg__
	.cfi_def_cfa_offset 6
	in r28,__SP_L__
	in r29,__SP_H__
	.cfi_def_cfa_register 28
/* prologue: function */
/* frame size = 1 */
/* stack size = 3 */
.L__stack_usage = 3
.LBB44:
.LBB45:
	.loc 1 72 0
	ldi r18,lo8(16)
	sts 1606,r18
.LVL9:
.LBE45:
.LBE44:
.LBB46:
.LBB47:
	.loc 2 276 0
	ldi r18,lo8(10)
1:	dec r18
	brne 1b
	rjmp .
.LVL10:
.LBE47:
.LBE46:
	.loc 1 132 0
	ldi r18,lo8(15)
	std Y+1,r18
	.loc 1 133 0
	ldd r18,Y+1
	sts 2243,r18
	.loc 1 134 0
	ldi r30,lo8(-64)
	ldi r31,lo8(8)
.L15:
	.loc 1 134 0 is_stmt 0 discriminator 1
	ldd r18,Z+2
	.loc 1 134 0 is_stmt 1 discriminator 1
	tst r18
	brge .L15
	.loc 1 138 0
	std Y+1,r25
	.loc 1 139 0
	ldd r25,Y+1
	sts 2243,r25
	.loc 1 140 0
	ldi r30,lo8(-64)
	ldi r31,lo8(8)
.L16:
	.loc 1 140 0 is_stmt 0 discriminator 1
	ldd r25,Z+2
	.loc 1 140 0 is_stmt 1 discriminator 1
	tst r25
	brge .L16
	.loc 1 143 0
	std Y+1,r24
	.loc 1 144 0
	ldd r24,Y+1
.LVL11:
	sts 2243,r24
	.loc 1 145 0
	ldi r30,lo8(-64)
	ldi r31,lo8(8)
.L17:
	.loc 1 145 0 is_stmt 0 discriminator 1
	ldd r24,Z+2
	.loc 1 145 0 is_stmt 1 discriminator 1
	tst r24
	brge .L17
	.loc 1 148 0
	std Y+1,__zero_reg__
	.loc 1 149 0
	ldd r24,Y+1
	sts 2243,r24
	.loc 1 150 0
	ldi r30,lo8(-64)
	ldi r31,lo8(8)
.L18:
	.loc 1 150 0 is_stmt 0 discriminator 1
	ldd r24,Z+2
	.loc 1 150 0 is_stmt 1 discriminator 1
	tst r24
	brge .L18
	.loc 1 151 0
	lds r24,2243
	.loc 1 151 0
	std Y+1,r24
.LBB48:
.LBB49:
	.loc 1 77 0
	ldi r24,lo8(16)
	sts 1605,r24
.LBE49:
.LBE48:
	.loc 1 155 0
	ldd r24,Y+1
/* epilogue start */
	.loc 1 156 0
	pop __tmp_reg__
	pop r29
	pop r28
	ret
	.cfi_endproc
.LFE11:
	.size	W51_read, .-W51_read
	.section	.text.W51_init,code
.global	W51_init
	.type	W51_init, @function
W51_init:
.LFB12:
	.loc 1 161 0
	.cfi_startproc
/* prologue: function */
/* frame size = 0 */
/* stack size = 0 */
.L__stack_usage = 0
	.loc 1 162 0
	call reset_w5100
.LVL12:
.LBB50:
.LBB51:
	.loc 2 187 0
	ldi r24,lo8(7999)
	ldi r25,hi8(7999)
1:	sbiw r24,1
	brne 1b
	rjmp .
	nop
.LVL13:
	ret
.LBE51:
.LBE50:
	.cfi_endproc
.LFE12:
	.size	W51_init, .-W51_init
	.section	.text.delay_for_w51_0,code
.global	delay_for_w51_0
	.type	delay_for_w51_0, @function
delay_for_w51_0:
.LFB13:
	.loc 1 168 0
	.cfi_startproc
/* prologue: function */
/* frame size = 0 */
/* stack size = 0 */
.L__stack_usage = 0
.LVL14:
.LBB52:
.LBB53:
	.loc 2 187 0
	ldi r18,lo8(639999)
	ldi r24,hi8(639999)
	ldi r25,hlo8(639999)
1:	subi r18,1
	sbci r24,0
	sbci r25,0
	brne 1b
	rjmp .
	nop
.LVL15:
	ret
.LBE53:
.LBE52:
	.cfi_endproc
.LFE13:
	.size	delay_for_w51_0, .-delay_for_w51_0
	.section	.text.W51_config,code
.global	W51_config
	.type	W51_config, @function
W51_config:
.LFB14:
	.loc 1 174 0
	.cfi_startproc
.LVL16:
	push r28
	.cfi_def_cfa_offset 4
	.cfi_offset 28, -3
	push r29
	.cfi_def_cfa_offset 5
	.cfi_offset 29, -4
/* prologue: function */
/* frame size = 0 */
/* stack size = 2 */
.L__stack_usage = 2
	.loc 1 175 0
	sbiw r24,0
	brne .+2
	rjmp .L27
	movw r28,r24
	.loc 1 177 0
	ldd r22,Y+14
	ldi r24,lo8(1)
	ldi r25,0
.LVL17:
	call W51_write
.LVL18:
	.loc 1 178 0
	ldd r22,Y+15
	ldi r24,lo8(2)
	ldi r25,0
	call W51_write
.LVL19:
	.loc 1 179 0
	ldd r22,Y+16
	ldi r24,lo8(3)
	ldi r25,0
	call W51_write
.LVL20:
	.loc 1 180 0
	ldd r22,Y+17
	ldi r24,lo8(4)
	ldi r25,0
	call W51_write
.LVL21:
.LBB54:
.LBB55:
	.loc 2 187 0
	ldi r24,lo8(7999)
	ldi r25,hi8(7999)
1:	sbiw r24,1
	brne 1b
	rjmp .
	nop
.LVL22:
.LBE55:
.LBE54:
	.loc 1 183 0
	ld r22,Y
	ldi r24,lo8(9)
	ldi r25,0
	call W51_write
.LVL23:
	.loc 1 184 0
	ldd r22,Y+1
	ldi r24,lo8(10)
	ldi r25,0
	call W51_write
.LVL24:
	.loc 1 185 0
	ldd r22,Y+2
	ldi r24,lo8(11)
	ldi r25,0
	call W51_write
.LVL25:
	.loc 1 186 0
	ldd r22,Y+3
	ldi r24,lo8(12)
	ldi r25,0
	call W51_write
.LVL26:
	.loc 1 187 0
	ldd r22,Y+4
	ldi r24,lo8(13)
	ldi r25,0
	call W51_write
.LVL27:
	.loc 1 188 0
	ldd r22,Y+5
	ldi r24,lo8(14)
	ldi r25,0
	call W51_write
.LVL28:
.LBB56:
.LBB57:
	.loc 2 187 0
	ldi r24,lo8(7999)
	ldi r25,hi8(7999)
1:	sbiw r24,1
	brne 1b
	rjmp .
	nop
.LVL29:
.LBE57:
.LBE56:
	.loc 1 191 0
	ldd r22,Y+10
	ldi r24,lo8(5)
	ldi r25,0
	call W51_write
.LVL30:
	.loc 1 192 0
	ldd r22,Y+11
	ldi r24,lo8(6)
	ldi r25,0
	call W51_write
.LVL31:
	.loc 1 193 0
	ldd r22,Y+12
	ldi r24,lo8(7)
	ldi r25,0
	call W51_write
.LVL32:
	.loc 1 194 0
	ldd r22,Y+13
	ldi r24,lo8(8)
	ldi r25,0
	call W51_write
.LVL33:
.LBB58:
.LBB59:
	.loc 2 187 0
	ldi r24,lo8(7999)
	ldi r25,hi8(7999)
1:	sbiw r24,1
	brne 1b
	rjmp .
	nop
.LVL34:
.LBE59:
.LBE58:
	.loc 1 197 0
	ldd r22,Y+6
	ldi r24,lo8(15)
	ldi r25,0
	call W51_write
.LVL35:
	.loc 1 198 0
	ldd r22,Y+7
	ldi r24,lo8(16)
	ldi r25,0
	call W51_write
.LVL36:
	.loc 1 199 0
	ldd r22,Y+8
	ldi r24,lo8(17)
	ldi r25,0
	call W51_write
.LVL37:
	.loc 1 200 0
	ldd r22,Y+9
	ldi r24,lo8(18)
	ldi r25,0
	call W51_write
.LVL38:
.LBB60:
.LBB61:
	.loc 2 187 0
	ldi r24,lo8(7999)
	ldi r25,hi8(7999)
1:	sbiw r24,1
	brne 1b
	rjmp .
	nop
.LVL39:
.LBE61:
.LBE60:
	.loc 1 203 0
	ldi r22,lo8(85)
	ldi r24,lo8(26)
	ldi r25,0
	call W51_write
.LVL40:
	.loc 1 204 0
	ldi r22,lo8(85)
	ldi r24,lo8(27)
	ldi r25,0
	call W51_write
.LVL41:
	.loc 1 206 0
	ldi r24,0
	rjmp .L26
.LVL42:
.L27:
	.loc 1 175 0
	ldi r24,lo8(-1)
.LVL43:
.L26:
/* epilogue start */
	.loc 1 207 0
	pop r29
	pop r28
	ret
	.cfi_endproc
.LFE14:
	.size	W51_config, .-W51_config
	.section	.text,code
.Letext0:
	.file 3 "/opt/microchip/xc8/v2.10/avr/avr/include/stdint.h"
	.file 4 "/opt/microchip/xc8/v2.10/dfp/include/avr/iox128a3u.h"
	.file 5 "w5100/w5100.h"